ARM GAS  /var/folders/fp/915b6f8s6gl4dt9rfrq38g500000gn/T//cchHy16I.s 			page 1


   1              		.cpu cortex-m7
   2              		.eabi_attribute 28, 1
   3              		.eabi_attribute 20, 1
   4              		.eabi_attribute 21, 1
   5              		.eabi_attribute 23, 3
   6              		.eabi_attribute 24, 1
   7              		.eabi_attribute 25, 1
   8              		.eabi_attribute 26, 1
   9              		.eabi_attribute 30, 2
  10              		.eabi_attribute 34, 1
  11              		.eabi_attribute 18, 4
  12              		.file	"main_2.cpp"
  13              		.text
  14              	.Ltext0:
  15              		.cfi_sections	.debug_frame
  16              		.section	.text._ZN7daisysp3SvfD2Ev,"axG",%progbits,_ZN7daisysp3SvfD5Ev,comdat
  17              		.align	1
  18              		.p2align 2,,3
  19              		.weak	_ZN7daisysp3SvfD2Ev
  20              		.arch armv7e-m
  21              		.syntax unified
  22              		.thumb
  23              		.thumb_func
  24              		.fpu fpv5-d16
  26              	_ZN7daisysp3SvfD2Ev:
  27              	.LVL0:
  28              	.LFB3203:
  29              		.file 1 "lib/DaisySP/Source/Filters/svf.h"
   1:lib/DaisySP/Source/Filters/svf.h **** #pragma once
   2:lib/DaisySP/Source/Filters/svf.h **** #ifndef DSY_SVF_H
   3:lib/DaisySP/Source/Filters/svf.h **** #define DSY_SVF_H
   4:lib/DaisySP/Source/Filters/svf.h **** 
   5:lib/DaisySP/Source/Filters/svf.h **** namespace daisysp
   6:lib/DaisySP/Source/Filters/svf.h **** {
   7:lib/DaisySP/Source/Filters/svf.h **** /**      Double Sampled, Stable State Variable Filter
   8:lib/DaisySP/Source/Filters/svf.h **** 
   9:lib/DaisySP/Source/Filters/svf.h **** Credit to Andrew Simper from musicdsp.org
  10:lib/DaisySP/Source/Filters/svf.h **** 
  11:lib/DaisySP/Source/Filters/svf.h **** This is his "State Variable Filter (Double Sampled, Stable)"
  12:lib/DaisySP/Source/Filters/svf.h **** 
  13:lib/DaisySP/Source/Filters/svf.h **** Additional thanks to Laurent de Soras for stability limit, and 
  14:lib/DaisySP/Source/Filters/svf.h **** Stefan Diedrichsen for the correct notch output
  15:lib/DaisySP/Source/Filters/svf.h **** 
  16:lib/DaisySP/Source/Filters/svf.h **** Ported by: Stephen Hensley
  17:lib/DaisySP/Source/Filters/svf.h **** */
  18:lib/DaisySP/Source/Filters/svf.h **** class Svf
  19:lib/DaisySP/Source/Filters/svf.h **** {
  20:lib/DaisySP/Source/Filters/svf.h ****   public:
  21:lib/DaisySP/Source/Filters/svf.h ****     Svf() {}
  22:lib/DaisySP/Source/Filters/svf.h ****     ~Svf() {}
  30              		.loc 1 22 5 view -0
  31              		.cfi_startproc
  32              		@ args = 0, pretend = 0, frame = 0
  33              		@ frame_needed = 0, uses_anonymous_args = 0
  34              		@ link register save eliminated.
  35              		.loc 1 22 13 is_stmt 0 view .LVU1
  36 0000 7047     		bx	lr
ARM GAS  /var/folders/fp/915b6f8s6gl4dt9rfrq38g500000gn/T//cchHy16I.s 			page 2


  37              		.cfi_endproc
  38              	.LFE3203:
  40              		.weak	_ZN7daisysp3SvfD1Ev
  41              		.thumb_set _ZN7daisysp3SvfD1Ev,_ZN7daisysp3SvfD2Ev
  42 0002 00BF     		.section	.text._ZN5daisy3LedD2Ev,"axG",%progbits,_ZN5daisy3LedD5Ev,comdat
  43              		.align	1
  44              		.p2align 2,,3
  45              		.weak	_ZN5daisy3LedD2Ev
  46              		.syntax unified
  47              		.thumb
  48              		.thumb_func
  49              		.fpu fpv5-d16
  51              	_ZN5daisy3LedD2Ev:
  52              	.LVL1:
  53              	.LFB5283:
  54              		.file 2 "lib/libdaisy/src/hid/led.h"
   1:lib/libdaisy/src/hid/led.h **** 
   2:lib/libdaisy/src/hid/led.h **** #pragma once
   3:lib/libdaisy/src/hid/led.h **** #ifndef DSY_LED_H
   4:lib/libdaisy/src/hid/led.h **** #define DSY_LED_H
   5:lib/libdaisy/src/hid/led.h **** #include "daisy_core.h"
   6:lib/libdaisy/src/hid/led.h **** #include "per/gpio.h"
   7:lib/libdaisy/src/hid/led.h **** 
   8:lib/libdaisy/src/hid/led.h **** /* TODO - Get this set up to work with the dev_leddriver stuff as well
   9:lib/libdaisy/src/hid/led.h **** - Setup Hardware PWM for pins that have it
  10:lib/libdaisy/src/hid/led.h **** */
  11:lib/libdaisy/src/hid/led.h **** 
  12:lib/libdaisy/src/hid/led.h **** namespace daisy
  13:lib/libdaisy/src/hid/led.h **** {
  14:lib/libdaisy/src/hid/led.h **** /**
  15:lib/libdaisy/src/hid/led.h ****     @brief LED Class providing simple Software PWM ability, etc \n 
  16:lib/libdaisy/src/hid/led.h ****     Eventually this will work with hardware PWM, and external LED Driver devices as well.
  17:lib/libdaisy/src/hid/led.h ****     @author shensley
  18:lib/libdaisy/src/hid/led.h ****     @date March 2020
  19:lib/libdaisy/src/hid/led.h ****     @ingroup feedback
  20:lib/libdaisy/src/hid/led.h **** */
  21:lib/libdaisy/src/hid/led.h **** class Led
  22:lib/libdaisy/src/hid/led.h **** {
  23:lib/libdaisy/src/hid/led.h ****   public:
  24:lib/libdaisy/src/hid/led.h ****     Led() {}
  25:lib/libdaisy/src/hid/led.h ****     ~Led() {}
  55              		.loc 2 25 5 is_stmt 1 view -0
  56              		.cfi_startproc
  57              		@ args = 0, pretend = 0, frame = 0
  58              		@ frame_needed = 0, uses_anonymous_args = 0
  59              		@ link register save eliminated.
  60              		.loc 2 25 13 is_stmt 0 view .LVU3
  61 0000 7047     		bx	lr
  62              		.cfi_endproc
  63              	.LFE5283:
  65              		.weak	_ZN5daisy3LedD1Ev
  66              		.thumb_set _ZN5daisy3LedD1Ev,_ZN5daisy3LedD2Ev
  67 0002 00BF     		.section	.text._ZN5daisy9DaisySeedD2Ev,"axG",%progbits,_ZN5daisy9DaisySeedD5Ev,comdat
  68              		.align	1
  69              		.p2align 2,,3
  70              		.weak	_ZN5daisy9DaisySeedD2Ev
  71              		.syntax unified
ARM GAS  /var/folders/fp/915b6f8s6gl4dt9rfrq38g500000gn/T//cchHy16I.s 			page 3


  72              		.thumb
  73              		.thumb_func
  74              		.fpu fpv5-d16
  76              	_ZN5daisy9DaisySeedD2Ev:
  77              	.LVL2:
  78              	.LFB5665:
  79              		.file 3 "lib/libdaisy/src/daisy_seed.h"
   1:lib/libdaisy/src/daisy_seed.h **** #pragma once
   2:lib/libdaisy/src/daisy_seed.h **** #ifndef DSY_SEED_H
   3:lib/libdaisy/src/daisy_seed.h **** #define DSY_SEED_H
   4:lib/libdaisy/src/daisy_seed.h **** 
   5:lib/libdaisy/src/daisy_seed.h **** #include "daisy.h"
   6:lib/libdaisy/src/daisy_seed.h **** 
   7:lib/libdaisy/src/daisy_seed.h **** //Uncomment this out if you're still using the rev2 hardware
   8:lib/libdaisy/src/daisy_seed.h **** //#define SEED_REV2
   9:lib/libdaisy/src/daisy_seed.h **** 
  10:lib/libdaisy/src/daisy_seed.h **** namespace daisy
  11:lib/libdaisy/src/daisy_seed.h **** {
  12:lib/libdaisy/src/daisy_seed.h **** /**
  13:lib/libdaisy/src/daisy_seed.h ****    @brief This is the higher-level interface for the Daisy board. \n 
  14:lib/libdaisy/src/daisy_seed.h ****     All basic peripheral configuration/initialization is setup here. \n
  15:lib/libdaisy/src/daisy_seed.h **** 
  16:lib/libdaisy/src/daisy_seed.h ****    @ingroup boards
  17:lib/libdaisy/src/daisy_seed.h **** */
  18:lib/libdaisy/src/daisy_seed.h **** class DaisySeed
  19:lib/libdaisy/src/daisy_seed.h **** {
  20:lib/libdaisy/src/daisy_seed.h ****   public:
  21:lib/libdaisy/src/daisy_seed.h ****     DaisySeed() {}
  22:lib/libdaisy/src/daisy_seed.h ****     ~DaisySeed() {}
  80              		.loc 3 22 5 is_stmt 1 view -0
  81              		.cfi_startproc
  82              		@ args = 0, pretend = 0, frame = 0
  83              		@ frame_needed = 0, uses_anonymous_args = 0
  84              		@ link register save eliminated.
  85              	.LBB3246:
  86              	.LBI3246:
  87              		.file 4 "lib/libdaisy/src/sys/system.h"
   1:lib/libdaisy/src/sys/system.h **** #ifndef DSY_SYSTEM_H
   2:lib/libdaisy/src/sys/system.h **** #define DSY_SYSTEM_H
   3:lib/libdaisy/src/sys/system.h **** 
   4:lib/libdaisy/src/sys/system.h **** #ifndef UNIT_TEST // for unit tests, a dummy implementation is provided below
   5:lib/libdaisy/src/sys/system.h **** 
   6:lib/libdaisy/src/sys/system.h **** #include <cstdint>
   7:lib/libdaisy/src/sys/system.h **** #include "per/tim.h"
   8:lib/libdaisy/src/sys/system.h **** 
   9:lib/libdaisy/src/sys/system.h **** namespace daisy
  10:lib/libdaisy/src/sys/system.h **** {
  11:lib/libdaisy/src/sys/system.h **** /** A handle for interacting with the Core System. 
  12:lib/libdaisy/src/sys/system.h ****  ** This includes the Clock tree, MPU, global DMA initialization,
  13:lib/libdaisy/src/sys/system.h ****  ** cache handling, and any other necessary global initiailzation
  14:lib/libdaisy/src/sys/system.h ****  **
  15:lib/libdaisy/src/sys/system.h ****  ** @author shensley
  16:lib/libdaisy/src/sys/system.h ****  ** @ingroup system
  17:lib/libdaisy/src/sys/system.h ****  */
  18:lib/libdaisy/src/sys/system.h **** class System
  19:lib/libdaisy/src/sys/system.h **** {
  20:lib/libdaisy/src/sys/system.h ****   public:
ARM GAS  /var/folders/fp/915b6f8s6gl4dt9rfrq38g500000gn/T//cchHy16I.s 			page 4


  21:lib/libdaisy/src/sys/system.h ****     /** Contains settings for initializing the System */
  22:lib/libdaisy/src/sys/system.h ****     struct Config
  23:lib/libdaisy/src/sys/system.h ****     {
  24:lib/libdaisy/src/sys/system.h ****         /** Specifies the system clock frequency that feeds APB/AHB clocks, etc. */
  25:lib/libdaisy/src/sys/system.h ****         enum class SysClkFreq
  26:lib/libdaisy/src/sys/system.h ****         {
  27:lib/libdaisy/src/sys/system.h ****             FREQ_400MHZ,
  28:lib/libdaisy/src/sys/system.h ****             FREQ_480MHZ,
  29:lib/libdaisy/src/sys/system.h ****         };
  30:lib/libdaisy/src/sys/system.h **** 
  31:lib/libdaisy/src/sys/system.h ****         /** Method to call on the struct to set to defaults
  32:lib/libdaisy/src/sys/system.h ****          ** CPU Freq set to 400MHz
  33:lib/libdaisy/src/sys/system.h ****          ** Cache Enabled 
  34:lib/libdaisy/src/sys/system.h ****          ** */
  35:lib/libdaisy/src/sys/system.h ****         void Defaults()
  36:lib/libdaisy/src/sys/system.h ****         {
  37:lib/libdaisy/src/sys/system.h ****             cpu_freq    = SysClkFreq::FREQ_400MHZ;
  38:lib/libdaisy/src/sys/system.h ****             use_dcache  = true;
  39:lib/libdaisy/src/sys/system.h ****             use_icache  = true;
  40:lib/libdaisy/src/sys/system.h ****             skip_clocks = false;
  41:lib/libdaisy/src/sys/system.h ****         }
  42:lib/libdaisy/src/sys/system.h **** 
  43:lib/libdaisy/src/sys/system.h ****         /** Method to call on the struct to set to boost mode:
  44:lib/libdaisy/src/sys/system.h ****          ** CPU Freq set to 480MHz
  45:lib/libdaisy/src/sys/system.h ****          ** Cache Enabled 
  46:lib/libdaisy/src/sys/system.h ****          ** */
  47:lib/libdaisy/src/sys/system.h ****         void Boost()
  48:lib/libdaisy/src/sys/system.h ****         {
  49:lib/libdaisy/src/sys/system.h ****             cpu_freq    = SysClkFreq::FREQ_480MHZ;
  50:lib/libdaisy/src/sys/system.h ****             use_dcache  = true;
  51:lib/libdaisy/src/sys/system.h ****             use_icache  = true;
  52:lib/libdaisy/src/sys/system.h ****             skip_clocks = false;
  53:lib/libdaisy/src/sys/system.h ****         }
  54:lib/libdaisy/src/sys/system.h **** 
  55:lib/libdaisy/src/sys/system.h ****         SysClkFreq cpu_freq;
  56:lib/libdaisy/src/sys/system.h ****         bool       use_dcache;
  57:lib/libdaisy/src/sys/system.h ****         bool       use_icache;
  58:lib/libdaisy/src/sys/system.h ****         bool       skip_clocks;
  59:lib/libdaisy/src/sys/system.h ****     };
  60:lib/libdaisy/src/sys/system.h **** 
  61:lib/libdaisy/src/sys/system.h ****     /** Describes the different regions of memory available to the Daisy
  62:lib/libdaisy/src/sys/system.h ****      * 
  63:lib/libdaisy/src/sys/system.h ****      */
  64:lib/libdaisy/src/sys/system.h ****     enum MemoryRegion
  65:lib/libdaisy/src/sys/system.h ****     {
  66:lib/libdaisy/src/sys/system.h ****         INTERNAL_FLASH = 0,
  67:lib/libdaisy/src/sys/system.h ****         ITCMRAM,
  68:lib/libdaisy/src/sys/system.h ****         DTCMRAM,
  69:lib/libdaisy/src/sys/system.h ****         SRAM_D1,
  70:lib/libdaisy/src/sys/system.h ****         SRAM_D2,
  71:lib/libdaisy/src/sys/system.h ****         SRAM_D3,
  72:lib/libdaisy/src/sys/system.h ****         SDRAM,
  73:lib/libdaisy/src/sys/system.h ****         QSPI,
  74:lib/libdaisy/src/sys/system.h ****         INVALID_ADDRESS,
  75:lib/libdaisy/src/sys/system.h ****     };
  76:lib/libdaisy/src/sys/system.h **** 
  77:lib/libdaisy/src/sys/system.h ****     System() {}
ARM GAS  /var/folders/fp/915b6f8s6gl4dt9rfrq38g500000gn/T//cchHy16I.s 			page 5


  78:lib/libdaisy/src/sys/system.h ****     ~System() {}
  88              		.loc 4 78 5 view .LVU5
  89              		.loc 4 78 5 is_stmt 0 view .LVU6
  90              	.LBE3246:
  91              	.LBB3247:
  92              	.LBI3247:
  93              		.file 5 "lib/libdaisy/src/hid/usb.h"
   1:lib/libdaisy/src/hid/usb.h **** #pragma once
   2:lib/libdaisy/src/hid/usb.h **** #ifndef DSY_HID_USB_H
   3:lib/libdaisy/src/hid/usb.h **** #define DSY_HID_USB_H
   4:lib/libdaisy/src/hid/usb.h **** #include <stdint.h>
   5:lib/libdaisy/src/hid/usb.h **** #include <stdlib.h>
   6:lib/libdaisy/src/hid/usb.h **** 
   7:lib/libdaisy/src/hid/usb.h **** namespace daisy
   8:lib/libdaisy/src/hid/usb.h **** /** @addtogroup human_interface
   9:lib/libdaisy/src/hid/usb.h ****     @{
  10:lib/libdaisy/src/hid/usb.h **** */
  11:lib/libdaisy/src/hid/usb.h **** 
  12:lib/libdaisy/src/hid/usb.h **** {
  13:lib/libdaisy/src/hid/usb.h **** /** 
  14:lib/libdaisy/src/hid/usb.h ****     @brief Interface for initializing and using the USB Peripherals on the daisy
  15:lib/libdaisy/src/hid/usb.h ****     @author Stephen Hensley
  16:lib/libdaisy/src/hid/usb.h ****     @date December 2019
  17:lib/libdaisy/src/hid/usb.h **** */
  18:lib/libdaisy/src/hid/usb.h **** class UsbHandle
  19:lib/libdaisy/src/hid/usb.h **** {
  20:lib/libdaisy/src/hid/usb.h ****   public:
  21:lib/libdaisy/src/hid/usb.h ****     /** Return values for USBHandle Functions */
  22:lib/libdaisy/src/hid/usb.h ****     enum class Result
  23:lib/libdaisy/src/hid/usb.h ****     {
  24:lib/libdaisy/src/hid/usb.h ****         OK,
  25:lib/libdaisy/src/hid/usb.h ****         ERR,
  26:lib/libdaisy/src/hid/usb.h ****     };
  27:lib/libdaisy/src/hid/usb.h **** 
  28:lib/libdaisy/src/hid/usb.h ****     /** Specified which of the two USB Peripherals to initialize. */
  29:lib/libdaisy/src/hid/usb.h ****     enum UsbPeriph
  30:lib/libdaisy/src/hid/usb.h ****     {
  31:lib/libdaisy/src/hid/usb.h ****         FS_INTERNAL, /**< Internal pin */
  32:lib/libdaisy/src/hid/usb.h ****         FS_EXTERNAL, /**< FS External D+ pin is Pin 38 (GPIO32). FS External D- pin is Pin 37 (GPIO
  33:lib/libdaisy/src/hid/usb.h ****         FS_BOTH,     /**< Both */
  34:lib/libdaisy/src/hid/usb.h ****     };
  35:lib/libdaisy/src/hid/usb.h **** 
  36:lib/libdaisy/src/hid/usb.h **** 
  37:lib/libdaisy/src/hid/usb.h ****     /** Function called upon reception of a buffer */
  38:lib/libdaisy/src/hid/usb.h ****     typedef void (*ReceiveCallback)(uint8_t* buff, uint32_t* len);
  39:lib/libdaisy/src/hid/usb.h **** 
  40:lib/libdaisy/src/hid/usb.h ****     UsbHandle() {}
  41:lib/libdaisy/src/hid/usb.h **** 
  42:lib/libdaisy/src/hid/usb.h ****     ~UsbHandle() {}
  94              		.loc 5 42 5 is_stmt 1 view .LVU7
  95              		.loc 5 42 5 is_stmt 0 view .LVU8
  96              	.LBE3247:
  97              	.LBB3248:
  98              	.LBI3248:
  99              		.file 6 "lib/libdaisy/src/per/adc.h"
   1:lib/libdaisy/src/per/adc.h **** #pragma once
   2:lib/libdaisy/src/per/adc.h **** #ifndef DSY_ADC_H
ARM GAS  /var/folders/fp/915b6f8s6gl4dt9rfrq38g500000gn/T//cchHy16I.s 			page 6


   3:lib/libdaisy/src/per/adc.h **** #define DSY_ADC_H /**< Macro */
   4:lib/libdaisy/src/per/adc.h **** #include <stdint.h>
   5:lib/libdaisy/src/per/adc.h **** #include <stdlib.h>
   6:lib/libdaisy/src/per/adc.h **** #include "daisy_core.h"
   7:lib/libdaisy/src/per/adc.h **** #include "per/gpio.h"
   8:lib/libdaisy/src/per/adc.h **** 
   9:lib/libdaisy/src/per/adc.h **** #define DSY_ADC_MAX_CHANNELS 16 /**< Maximum number of ADC channels */
  10:lib/libdaisy/src/per/adc.h **** 
  11:lib/libdaisy/src/per/adc.h **** namespace daisy
  12:lib/libdaisy/src/per/adc.h **** {
  13:lib/libdaisy/src/per/adc.h **** /** @addtogroup per_analog
  14:lib/libdaisy/src/per/adc.h ****     @{
  15:lib/libdaisy/src/per/adc.h **** */
  16:lib/libdaisy/src/per/adc.h **** 
  17:lib/libdaisy/src/per/adc.h **** /* While there may not be many configuration options here,
  18:lib/libdaisy/src/per/adc.h **** using a struct like this allows us to add more configuration
  19:lib/libdaisy/src/per/adc.h **** later without breaking existing functionality.
  20:lib/libdaisy/src/per/adc.h **** */
  21:lib/libdaisy/src/per/adc.h **** 
  22:lib/libdaisy/src/per/adc.h **** /** @brief   Configuration Structure for an ADC Channel 
  23:lib/libdaisy/src/per/adc.h ****  *  @details This can be used to configure a a single input, 
  24:lib/libdaisy/src/per/adc.h ****  *           or a multiplexed input, allowing up to 8 inputs on 
  25:lib/libdaisy/src/per/adc.h ****  *           one channel.
  26:lib/libdaisy/src/per/adc.h ****  *  @note    Sharing data lines to multiple muxes _is_ possible, but
  27:lib/libdaisy/src/per/adc.h ****  *           each channel sharing data lines must be set to the maximum
  28:lib/libdaisy/src/per/adc.h ****  *           number of channels, even if some multiplexers have fewer
  29:lib/libdaisy/src/per/adc.h ****  *           inputs connected.
  30:lib/libdaisy/src/per/adc.h **** */
  31:lib/libdaisy/src/per/adc.h **** struct AdcChannelConfig
  32:lib/libdaisy/src/per/adc.h **** {
  33:lib/libdaisy/src/per/adc.h ****     /** Which pin to use for multiplexing */
  34:lib/libdaisy/src/per/adc.h ****     enum MuxPin
  35:lib/libdaisy/src/per/adc.h ****     {
  36:lib/libdaisy/src/per/adc.h ****         MUX_SEL_0,    /**< & */
  37:lib/libdaisy/src/per/adc.h ****         MUX_SEL_1,    /**< & */
  38:lib/libdaisy/src/per/adc.h ****         MUX_SEL_2,    /**< & */
  39:lib/libdaisy/src/per/adc.h ****         MUX_SEL_LAST, /**< & */
  40:lib/libdaisy/src/per/adc.h ****     };
  41:lib/libdaisy/src/per/adc.h **** 
  42:lib/libdaisy/src/per/adc.h ****     /** Initializes a single ADC pin as an ADC. 
  43:lib/libdaisy/src/per/adc.h ****     \param pin Pin to init.
  44:lib/libdaisy/src/per/adc.h ****      */
  45:lib/libdaisy/src/per/adc.h ****     void InitSingle(dsy_gpio_pin pin);
  46:lib/libdaisy/src/per/adc.h **** 
  47:lib/libdaisy/src/per/adc.h ****     /** 
  48:lib/libdaisy/src/per/adc.h ****     Initializes a single ADC pin as a Multiplexed ADC.
  49:lib/libdaisy/src/per/adc.h ****     Requires a CD405X Multiplexer connected to the pin.
  50:lib/libdaisy/src/per/adc.h ****     You only need to supply the mux pins that are required,
  51:lib/libdaisy/src/per/adc.h ****     e.g. a 4052 mux would only require mux_0 and mux_1.
  52:lib/libdaisy/src/per/adc.h ****     Internal Callbacks handle the pin addressing.
  53:lib/libdaisy/src/per/adc.h ****     \param mux_channels must be 1-8
  54:lib/libdaisy/src/per/adc.h ****     \param mux_0 First mux pin
  55:lib/libdaisy/src/per/adc.h ****     \param mux_1 Second mux pin
  56:lib/libdaisy/src/per/adc.h ****     \param mux_2 Third mux pin
  57:lib/libdaisy/src/per/adc.h ****     \param adc_pin &
  58:lib/libdaisy/src/per/adc.h ****     */
  59:lib/libdaisy/src/per/adc.h ****     void InitMux(dsy_gpio_pin adc_pin,
ARM GAS  /var/folders/fp/915b6f8s6gl4dt9rfrq38g500000gn/T//cchHy16I.s 			page 7


  60:lib/libdaisy/src/per/adc.h ****                  size_t       mux_channels,
  61:lib/libdaisy/src/per/adc.h ****                  dsy_gpio_pin mux_0,
  62:lib/libdaisy/src/per/adc.h ****                  dsy_gpio_pin mux_1 = {DSY_GPIOX, 0},
  63:lib/libdaisy/src/per/adc.h ****                  dsy_gpio_pin mux_2 = {DSY_GPIOX, 0});
  64:lib/libdaisy/src/per/adc.h **** 
  65:lib/libdaisy/src/per/adc.h ****     dsy_gpio pin_;                   /**< & */
  66:lib/libdaisy/src/per/adc.h ****     dsy_gpio mux_pin_[MUX_SEL_LAST]; /**< & */
  67:lib/libdaisy/src/per/adc.h ****     uint8_t  mux_channels_;          /**< & */
  68:lib/libdaisy/src/per/adc.h **** };
  69:lib/libdaisy/src/per/adc.h **** 
  70:lib/libdaisy/src/per/adc.h **** /**
  71:lib/libdaisy/src/per/adc.h ****    @brief Handler for analog to digital conversion
  72:lib/libdaisy/src/per/adc.h **** */
  73:lib/libdaisy/src/per/adc.h **** class AdcHandle
  74:lib/libdaisy/src/per/adc.h **** {
  75:lib/libdaisy/src/per/adc.h ****   public:
  76:lib/libdaisy/src/per/adc.h ****     /** Supported oversampling amounts */
  77:lib/libdaisy/src/per/adc.h ****     enum OverSampling
  78:lib/libdaisy/src/per/adc.h ****     {
  79:lib/libdaisy/src/per/adc.h ****         OVS_NONE, /**< & */
  80:lib/libdaisy/src/per/adc.h ****         OVS_4,    /**< & */
  81:lib/libdaisy/src/per/adc.h ****         OVS_8,    /**< & */
  82:lib/libdaisy/src/per/adc.h ****         OVS_16,   /**< & */
  83:lib/libdaisy/src/per/adc.h ****         OVS_32,   /**< & */
  84:lib/libdaisy/src/per/adc.h ****         OVS_64,   /**< & */
  85:lib/libdaisy/src/per/adc.h ****         OVS_128,  /**< & */
  86:lib/libdaisy/src/per/adc.h ****         OVS_256,  /**< & */
  87:lib/libdaisy/src/per/adc.h ****         OVS_512,  /**< & */
  88:lib/libdaisy/src/per/adc.h ****         OVS_1024, /**< & */
  89:lib/libdaisy/src/per/adc.h ****         OVS_LAST, /**< & */
  90:lib/libdaisy/src/per/adc.h ****     };
  91:lib/libdaisy/src/per/adc.h **** 
  92:lib/libdaisy/src/per/adc.h ****     AdcHandle() {}
  93:lib/libdaisy/src/per/adc.h ****     ~AdcHandle() {}
 100              		.loc 6 93 5 is_stmt 1 view .LVU9
 101              		.loc 6 93 5 is_stmt 0 view .LVU10
 102              	.LBE3248:
 103              	.LBB3249:
 104              	.LBI3249:
 105              		.file 7 "lib/libdaisy/src/hid/audio.h"
   1:lib/libdaisy/src/hid/audio.h **** #ifndef DSY_AUDIO_H
   2:lib/libdaisy/src/hid/audio.h **** #define DSY_AUDIO_H /**< & */
   3:lib/libdaisy/src/hid/audio.h **** 
   4:lib/libdaisy/src/hid/audio.h **** #include "per/sai.h"
   5:lib/libdaisy/src/hid/audio.h **** 
   6:lib/libdaisy/src/hid/audio.h **** namespace daisy
   7:lib/libdaisy/src/hid/audio.h **** {
   8:lib/libdaisy/src/hid/audio.h **** /** @brief Audio Engine Handle
   9:lib/libdaisy/src/hid/audio.h ****  *  @ingroup audio 
  10:lib/libdaisy/src/hid/audio.h ****  *  @details This class allows for higher level access to an audio engine.
  11:lib/libdaisy/src/hid/audio.h ****  *           If you're using a SOM like the DaisySeed or DaisyPatchSM (or any 
  12:lib/libdaisy/src/hid/audio.h ****  *            board that includes one of those objects) then the intialization
  13:lib/libdaisy/src/hid/audio.h ****  *            is already taken  care of.
  14:lib/libdaisy/src/hid/audio.h ****  *           If you're setting up your own custom hardware, or need to make changes
  15:lib/libdaisy/src/hid/audio.h ****  *           you will have to take the following steps:
  16:lib/libdaisy/src/hid/audio.h ****  *             1. Create and Initialize an SaiHandle or two depending on your requirements
  17:lib/libdaisy/src/hid/audio.h ****  *             2. Initialize the Audio Handle with the desired settings and the Initialized SaiHand
ARM GAS  /var/folders/fp/915b6f8s6gl4dt9rfrq38g500000gn/T//cchHy16I.s 			page 8


  18:lib/libdaisy/src/hid/audio.h ****  *             3. If the connected codec requires special configuration or initialization, do so
  19:lib/libdaisy/src/hid/audio.h ****  *             4. Write a callback method using either the AudioCallback or the InterleavingAudioCa
  20:lib/libdaisy/src/hid/audio.h ****  *             5. Start the Audio using one of the StartAudio function
  21:lib/libdaisy/src/hid/audio.h ****  */
  22:lib/libdaisy/src/hid/audio.h **** class AudioHandle
  23:lib/libdaisy/src/hid/audio.h **** {
  24:lib/libdaisy/src/hid/audio.h ****   public:
  25:lib/libdaisy/src/hid/audio.h ****     /** Manually configurable details about the Audio Engine */
  26:lib/libdaisy/src/hid/audio.h ****     /** TODO: Figure out how to get samplerate in here. */
  27:lib/libdaisy/src/hid/audio.h ****     struct Config
  28:lib/libdaisy/src/hid/audio.h ****     {
  29:lib/libdaisy/src/hid/audio.h ****         size_t                        blocksize;
  30:lib/libdaisy/src/hid/audio.h ****         SaiHandle::Config::SampleRate samplerate;
  31:lib/libdaisy/src/hid/audio.h ****         float                         postgain;
  32:lib/libdaisy/src/hid/audio.h ****     };
  33:lib/libdaisy/src/hid/audio.h **** 
  34:lib/libdaisy/src/hid/audio.h ****     enum class Result
  35:lib/libdaisy/src/hid/audio.h ****     {
  36:lib/libdaisy/src/hid/audio.h ****         OK,
  37:lib/libdaisy/src/hid/audio.h ****         ERR,
  38:lib/libdaisy/src/hid/audio.h ****     };
  39:lib/libdaisy/src/hid/audio.h **** 
  40:lib/libdaisy/src/hid/audio.h ****     /** Non-Interleaving input buffer
  41:lib/libdaisy/src/hid/audio.h ****      * Buffer arranged by float[chn][sample] 
  42:lib/libdaisy/src/hid/audio.h ****      * const so that the user can't modify the input
  43:lib/libdaisy/src/hid/audio.h ****      */
  44:lib/libdaisy/src/hid/audio.h ****     typedef const float* const* InputBuffer;
  45:lib/libdaisy/src/hid/audio.h **** 
  46:lib/libdaisy/src/hid/audio.h ****     /** Non-Interleaving output buffer
  47:lib/libdaisy/src/hid/audio.h ****      * Arranged by float[chn][sample] 
  48:lib/libdaisy/src/hid/audio.h ****      */
  49:lib/libdaisy/src/hid/audio.h ****     typedef float** OutputBuffer;
  50:lib/libdaisy/src/hid/audio.h **** 
  51:lib/libdaisy/src/hid/audio.h ****     /** Type for a Non-Interleaving audio callback 
  52:lib/libdaisy/src/hid/audio.h ****      * Non-Interleaving audio callbacks in daisy will be of this type
  53:lib/libdaisy/src/hid/audio.h ****      */
  54:lib/libdaisy/src/hid/audio.h ****     typedef void (*AudioCallback)(InputBuffer  in,
  55:lib/libdaisy/src/hid/audio.h ****                                   OutputBuffer out,
  56:lib/libdaisy/src/hid/audio.h ****                                   size_t       size);
  57:lib/libdaisy/src/hid/audio.h **** 
  58:lib/libdaisy/src/hid/audio.h ****     /** Interleaving Input buffer
  59:lib/libdaisy/src/hid/audio.h ****      ** audio is prepared as { L0, R0, L1, R1, . . . LN, RN }]
  60:lib/libdaisy/src/hid/audio.h ****      ** this is const, as the user shouldn't modify it
  61:lib/libdaisy/src/hid/audio.h ****     */
  62:lib/libdaisy/src/hid/audio.h ****     typedef const float* InterleavingInputBuffer;
  63:lib/libdaisy/src/hid/audio.h **** 
  64:lib/libdaisy/src/hid/audio.h ****     /** Interleaving Output buffer 
  65:lib/libdaisy/src/hid/audio.h ****      ** audio is prepared as { L0, R0, L1, R1, . . . LN, RN }
  66:lib/libdaisy/src/hid/audio.h ****     */
  67:lib/libdaisy/src/hid/audio.h ****     typedef float* InterleavingOutputBuffer;
  68:lib/libdaisy/src/hid/audio.h **** 
  69:lib/libdaisy/src/hid/audio.h ****     /** Interleaving Audio Callback 
  70:lib/libdaisy/src/hid/audio.h ****      * Interleaving audio callbacks in daisy must be of this type
  71:lib/libdaisy/src/hid/audio.h ****      */
  72:lib/libdaisy/src/hid/audio.h ****     typedef void (*InterleavingAudioCallback)(InterleavingInputBuffer  in,
  73:lib/libdaisy/src/hid/audio.h ****                                               InterleavingOutputBuffer out,
  74:lib/libdaisy/src/hid/audio.h ****                                               size_t                   size);
ARM GAS  /var/folders/fp/915b6f8s6gl4dt9rfrq38g500000gn/T//cchHy16I.s 			page 9


  75:lib/libdaisy/src/hid/audio.h **** 
  76:lib/libdaisy/src/hid/audio.h ****     AudioHandle() : pimpl_(nullptr) {}
  77:lib/libdaisy/src/hid/audio.h ****     ~AudioHandle() {}
 106              		.loc 7 77 5 is_stmt 1 view .LVU11
 107              		.loc 7 77 5 is_stmt 0 view .LVU12
 108              	.LBE3249:
 109              		.loc 3 22 19 view .LVU13
 110 0000 7047     		bx	lr
 111              		.cfi_endproc
 112              	.LFE5665:
 114              		.weak	_ZN5daisy9DaisySeedD1Ev
 115              		.thumb_set _ZN5daisy9DaisySeedD1Ev,_ZN5daisy9DaisySeedD2Ev
 116 0002 00BF     		.section	.text._ZN3LFO8sawtoothEv,"axG",%progbits,_ZN3LFO8sawtoothEv,comdat
 117              		.align	1
 118              		.p2align 2,,3
 119              		.weak	_ZN3LFO8sawtoothEv
 120              		.syntax unified
 121              		.thumb
 122              		.thumb_func
 123              		.fpu fpv5-d16
 125              	_ZN3LFO8sawtoothEv:
 126              	.LVL3:
 127              	.LFB5830:
 128              		.file 8 "src/LFO.h"
   1:src/LFO.h     **** #define _USE_MATH_DEFINES
   2:src/LFO.h     **** #include <math.h>
   3:src/LFO.h     **** 
   4:src/LFO.h     **** #pragma once
   5:src/LFO.h     **** 
   6:src/LFO.h     **** 
   7:src/LFO.h     **** class LFO {
   8:src/LFO.h     **** 
   9:src/LFO.h     **** public:
  10:src/LFO.h     **** 
  11:src/LFO.h     ****     // Move phase value to the next sample
  12:src/LFO.h     ****     float tick() {
  13:src/LFO.h     ****         phase += frequency / sample_rate;
  14:src/LFO.h     ****         if(phase >= 1) phase = phase - 1;
  15:src/LFO.h     ****         
  16:src/LFO.h     ****         // Mix between shapes
  17:src/LFO.h     ****         int first_shape = shape;
  18:src/LFO.h     ****         int second_shape = shape == 3 ? 3 : shape + 1;
  19:src/LFO.h     ****         float mix = shape - first_shape;
  20:src/LFO.h     ****         
  21:src/LFO.h     ****         float first_value = (this->*shapePointers[first_shape])();
  22:src/LFO.h     ****         float second_value = (this->*shapePointers[second_shape])();
  23:src/LFO.h     ****         
  24:src/LFO.h     ****         return (first_value + mix * (second_value - first_value)) * 0.5f;
  25:src/LFO.h     ****     }
  26:src/LFO.h     **** 
  27:src/LFO.h     ****     void set_shape(float shp) {
  28:src/LFO.h     ****         shape = shp;
  29:src/LFO.h     ****     }
  30:src/LFO.h     **** 
  31:src/LFO.h     **** 
  32:src/LFO.h     ****     void set_frequency(float freq) {
  33:src/LFO.h     ****         frequency = freq;
ARM GAS  /var/folders/fp/915b6f8s6gl4dt9rfrq38g500000gn/T//cchHy16I.s 			page 10


  34:src/LFO.h     ****     }
  35:src/LFO.h     **** 
  36:src/LFO.h     ****     void set_sample_rate(float sr)
  37:src/LFO.h     ****     {
  38:src/LFO.h     ****         sample_rate = sr;
  39:src/LFO.h     ****     }
  40:src/LFO.h     **** 
  41:src/LFO.h     **** private:
  42:src/LFO.h     ****     float shape = 0;
  43:src/LFO.h     **** 
  44:src/LFO.h     ****     float frequency = 1.0f;
  45:src/LFO.h     ****     float sample_rate = 44100.0f;
  46:src/LFO.h     ****     float phase = 0.0f;
  47:src/LFO.h     ****     float twoPI = 2.0f * M_PI;
  48:src/LFO.h     **** 
  49:src/LFO.h     ****     float sine() {
  50:src/LFO.h     ****         return sin(phase * twoPI);
  51:src/LFO.h     ****     }
  52:src/LFO.h     ****     
  53:src/LFO.h     ****     float sawtooth() {
 129              		.loc 8 53 11 is_stmt 1 view -0
 130              		.cfi_startproc
 131              		@ args = 0, pretend = 0, frame = 0
 132              		@ frame_needed = 0, uses_anonymous_args = 0
 133              		@ link register save eliminated.
  54:src/LFO.h     ****         return (1-phase)-0.5;
 134              		.loc 8 54 9 view .LVU15
 135              		.loc 8 54 18 is_stmt 0 view .LVU16
 136 0000 F7EE007A 		vmov.f32	s15, #1.0e+0
 137 0004 90ED037A 		vldr.32	s14, [r0, #12]
 138              		.loc 8 54 26 view .LVU17
 139 0008 B6EE000A 		vmov.f32	s0, #5.0e-1
 140              		.loc 8 54 18 view .LVU18
 141 000c 77EEC77A 		vsub.f32	s15, s15, s14
  55:src/LFO.h     ****     }
 142              		.loc 8 55 5 view .LVU19
 143 0010 37EEC00A 		vsub.f32	s0, s15, s0
 144 0014 7047     		bx	lr
 145              		.cfi_endproc
 146              	.LFE5830:
 148 0016 00BF     		.section	.text._ZN3LFO6squareEv,"axG",%progbits,_ZN3LFO6squareEv,comdat
 149              		.align	1
 150              		.p2align 2,,3
 151              		.weak	_ZN3LFO6squareEv
 152              		.syntax unified
 153              		.thumb
 154              		.thumb_func
 155              		.fpu fpv5-d16
 157              	_ZN3LFO6squareEv:
 158              	.LVL4:
 159              	.LFB5831:
  56:src/LFO.h     ****     
  57:src/LFO.h     ****     float square() {
 160              		.loc 8 57 11 is_stmt 1 view -0
 161              		.cfi_startproc
 162              		@ args = 0, pretend = 0, frame = 0
 163              		@ frame_needed = 0, uses_anonymous_args = 0
ARM GAS  /var/folders/fp/915b6f8s6gl4dt9rfrq38g500000gn/T//cchHy16I.s 			page 11


 164              		@ link register save eliminated.
  58:src/LFO.h     ****         float sample;
 165              		.loc 8 58 9 view .LVU21
  59:src/LFO.h     ****         if(phase >= 0.5) sample = 0.7; // 1 and -1 makes it significantly louder than the sine and 
 166              		.loc 8 59 9 view .LVU22
 167 0000 B6EE007A 		vmov.f32	s14, #5.0e-1
 168 0004 D0ED036A 		vldr.32	s13, [r0, #12]
  60:src/LFO.h     ****         else sample = -0.7;
 169              		.loc 8 60 21 is_stmt 0 view .LVU23
 170 0008 DFED057A 		vldr.32	s15, .L9
 171 000c 9FED050A 		vldr.32	s0, .L9+4
 172 0010 F4EEC76A 		vcmpe.f32	s13, s14
 173 0014 F1EE10FA 		vmrs	APSR_nzcv, FPSCR
  61:src/LFO.h     ****         return sample;
  62:src/LFO.h     ****     }
 174              		.loc 8 62 5 view .LVU24
 175 0018 20FE270A 		vselge.f32	s0, s0, s15
 176 001c 7047     		bx	lr
 177              	.L10:
 178 001e 00BF     		.align	2
 179              	.L9:
 180 0020 333333BF 		.word	-1087163597
 181 0024 3333333F 		.word	1060320051
 182              		.cfi_endproc
 183              	.LFE5831:
 185              		.section	.text._ZN3LFO8triangleEv,"axG",%progbits,_ZN3LFO8triangleEv,comdat
 186              		.align	1
 187              		.p2align 2,,3
 188              		.weak	_ZN3LFO8triangleEv
 189              		.syntax unified
 190              		.thumb
 191              		.thumb_func
 192              		.fpu fpv5-d16
 194              	_ZN3LFO8triangleEv:
 195              	.LVL5:
 196              	.LFB5832:
  63:src/LFO.h     ****     
  64:src/LFO.h     ****     float triangle() {
 197              		.loc 8 64 11 is_stmt 1 view -0
 198              		.cfi_startproc
 199              		@ args = 0, pretend = 0, frame = 0
 200              		@ frame_needed = 0, uses_anonymous_args = 0
 201              		@ link register save eliminated.
  65:src/LFO.h     ****         float sample = -1.0 + (2.0 * phase);
 202              		.loc 8 65 9 view .LVU26
 203              		.loc 8 65 38 is_stmt 0 view .LVU27
 204 0000 90ED036A 		vldr.32	s12, [r0, #12]
 205              		.loc 8 65 29 view .LVU28
 206 0004 B0EE003B 		vmov.f64	d3, #2.0e+0
 207 0008 BFEE007B 		vmov.f64	d7, #-1.0e+0
 208              		.loc 8 65 38 view .LVU29
 209 000c B7EEC66A 		vcvt.f64.f32	d6, s12
  66:src/LFO.h     ****         sample = 0.9 * (fabs(sample) - 0.5);
 210              		.loc 8 66 38 view .LVU30
 211 0010 B6EE004B 		vmov.f64	d4, #5.0e-1
  65:src/LFO.h     ****         float sample = -1.0 + (2.0 * phase);
 212              		.loc 8 65 29 view .LVU31
ARM GAS  /var/folders/fp/915b6f8s6gl4dt9rfrq38g500000gn/T//cchHy16I.s 			page 12


 213 0014 A6EE037B 		vfma.f64	d7, d6, d3
 214              	.LVL6:
 215              		.loc 8 66 9 is_stmt 1 view .LVU32
 216              	.LBB3250:
 217              	.LBI3250:
 218              		.file 9 "/Applications/ARM/arm-none-eabi/include/c++/10.3.1/cmath"
   1:/Applications/ARM/arm-none-eabi/include/c++/10.3.1/cmath **** // -*- C++ -*- C forwarding header.
   2:/Applications/ARM/arm-none-eabi/include/c++/10.3.1/cmath **** 
   3:/Applications/ARM/arm-none-eabi/include/c++/10.3.1/cmath **** // Copyright (C) 1997-2020 Free Software Foundation, Inc.
   4:/Applications/ARM/arm-none-eabi/include/c++/10.3.1/cmath **** //
   5:/Applications/ARM/arm-none-eabi/include/c++/10.3.1/cmath **** // This file is part of the GNU ISO C++ Library.  This library is free
   6:/Applications/ARM/arm-none-eabi/include/c++/10.3.1/cmath **** // software; you can redistribute it and/or modify it under the
   7:/Applications/ARM/arm-none-eabi/include/c++/10.3.1/cmath **** // terms of the GNU General Public License as published by the
   8:/Applications/ARM/arm-none-eabi/include/c++/10.3.1/cmath **** // Free Software Foundation; either version 3, or (at your option)
   9:/Applications/ARM/arm-none-eabi/include/c++/10.3.1/cmath **** // any later version.
  10:/Applications/ARM/arm-none-eabi/include/c++/10.3.1/cmath **** 
  11:/Applications/ARM/arm-none-eabi/include/c++/10.3.1/cmath **** // This library is distributed in the hope that it will be useful,
  12:/Applications/ARM/arm-none-eabi/include/c++/10.3.1/cmath **** // but WITHOUT ANY WARRANTY; without even the implied warranty of
  13:/Applications/ARM/arm-none-eabi/include/c++/10.3.1/cmath **** // MERCHANTABILITY or FITNESS FOR A PARTICULAR PURPOSE.  See the
  14:/Applications/ARM/arm-none-eabi/include/c++/10.3.1/cmath **** // GNU General Public License for more details.
  15:/Applications/ARM/arm-none-eabi/include/c++/10.3.1/cmath **** 
  16:/Applications/ARM/arm-none-eabi/include/c++/10.3.1/cmath **** // Under Section 7 of GPL version 3, you are granted additional
  17:/Applications/ARM/arm-none-eabi/include/c++/10.3.1/cmath **** // permissions described in the GCC Runtime Library Exception, version
  18:/Applications/ARM/arm-none-eabi/include/c++/10.3.1/cmath **** // 3.1, as published by the Free Software Foundation.
  19:/Applications/ARM/arm-none-eabi/include/c++/10.3.1/cmath **** 
  20:/Applications/ARM/arm-none-eabi/include/c++/10.3.1/cmath **** // You should have received a copy of the GNU General Public License and
  21:/Applications/ARM/arm-none-eabi/include/c++/10.3.1/cmath **** // a copy of the GCC Runtime Library Exception along with this program;
  22:/Applications/ARM/arm-none-eabi/include/c++/10.3.1/cmath **** // see the files COPYING3 and COPYING.RUNTIME respectively.  If not, see
  23:/Applications/ARM/arm-none-eabi/include/c++/10.3.1/cmath **** // <http://www.gnu.org/licenses/>.
  24:/Applications/ARM/arm-none-eabi/include/c++/10.3.1/cmath **** 
  25:/Applications/ARM/arm-none-eabi/include/c++/10.3.1/cmath **** /** @file include/cmath
  26:/Applications/ARM/arm-none-eabi/include/c++/10.3.1/cmath ****  *  This is a Standard C++ Library file.  You should @c \#include this file
  27:/Applications/ARM/arm-none-eabi/include/c++/10.3.1/cmath ****  *  in your programs, rather than any of the @a *.h implementation files.
  28:/Applications/ARM/arm-none-eabi/include/c++/10.3.1/cmath ****  *
  29:/Applications/ARM/arm-none-eabi/include/c++/10.3.1/cmath ****  *  This is the C++ version of the Standard C Library header @c math.h,
  30:/Applications/ARM/arm-none-eabi/include/c++/10.3.1/cmath ****  *  and its contents are (mostly) the same as that header, but are all
  31:/Applications/ARM/arm-none-eabi/include/c++/10.3.1/cmath ****  *  contained in the namespace @c std (except for names which are defined
  32:/Applications/ARM/arm-none-eabi/include/c++/10.3.1/cmath ****  *  as macros in C).
  33:/Applications/ARM/arm-none-eabi/include/c++/10.3.1/cmath ****  */
  34:/Applications/ARM/arm-none-eabi/include/c++/10.3.1/cmath **** 
  35:/Applications/ARM/arm-none-eabi/include/c++/10.3.1/cmath **** //
  36:/Applications/ARM/arm-none-eabi/include/c++/10.3.1/cmath **** // ISO C++ 14882: 26.5  C library
  37:/Applications/ARM/arm-none-eabi/include/c++/10.3.1/cmath **** //
  38:/Applications/ARM/arm-none-eabi/include/c++/10.3.1/cmath **** 
  39:/Applications/ARM/arm-none-eabi/include/c++/10.3.1/cmath **** #pragma GCC system_header
  40:/Applications/ARM/arm-none-eabi/include/c++/10.3.1/cmath **** 
  41:/Applications/ARM/arm-none-eabi/include/c++/10.3.1/cmath **** #include <bits/c++config.h>
  42:/Applications/ARM/arm-none-eabi/include/c++/10.3.1/cmath **** #include <bits/cpp_type_traits.h>
  43:/Applications/ARM/arm-none-eabi/include/c++/10.3.1/cmath **** #include <ext/type_traits.h>
  44:/Applications/ARM/arm-none-eabi/include/c++/10.3.1/cmath **** #define _GLIBCXX_INCLUDE_NEXT_C_HEADERS
  45:/Applications/ARM/arm-none-eabi/include/c++/10.3.1/cmath **** #include_next <math.h>
  46:/Applications/ARM/arm-none-eabi/include/c++/10.3.1/cmath **** #undef _GLIBCXX_INCLUDE_NEXT_C_HEADERS
  47:/Applications/ARM/arm-none-eabi/include/c++/10.3.1/cmath **** #include <bits/std_abs.h>
  48:/Applications/ARM/arm-none-eabi/include/c++/10.3.1/cmath **** 
  49:/Applications/ARM/arm-none-eabi/include/c++/10.3.1/cmath **** #ifndef _GLIBCXX_CMATH
  50:/Applications/ARM/arm-none-eabi/include/c++/10.3.1/cmath **** #define _GLIBCXX_CMATH 1
  51:/Applications/ARM/arm-none-eabi/include/c++/10.3.1/cmath **** 
ARM GAS  /var/folders/fp/915b6f8s6gl4dt9rfrq38g500000gn/T//cchHy16I.s 			page 13


  52:/Applications/ARM/arm-none-eabi/include/c++/10.3.1/cmath **** // Get rid of those macros defined in <math.h> in lieu of real functions.
  53:/Applications/ARM/arm-none-eabi/include/c++/10.3.1/cmath **** #undef div
  54:/Applications/ARM/arm-none-eabi/include/c++/10.3.1/cmath **** #undef acos
  55:/Applications/ARM/arm-none-eabi/include/c++/10.3.1/cmath **** #undef asin
  56:/Applications/ARM/arm-none-eabi/include/c++/10.3.1/cmath **** #undef atan
  57:/Applications/ARM/arm-none-eabi/include/c++/10.3.1/cmath **** #undef atan2
  58:/Applications/ARM/arm-none-eabi/include/c++/10.3.1/cmath **** #undef ceil
  59:/Applications/ARM/arm-none-eabi/include/c++/10.3.1/cmath **** #undef cos
  60:/Applications/ARM/arm-none-eabi/include/c++/10.3.1/cmath **** #undef cosh
  61:/Applications/ARM/arm-none-eabi/include/c++/10.3.1/cmath **** #undef exp
  62:/Applications/ARM/arm-none-eabi/include/c++/10.3.1/cmath **** #undef fabs
  63:/Applications/ARM/arm-none-eabi/include/c++/10.3.1/cmath **** #undef floor
  64:/Applications/ARM/arm-none-eabi/include/c++/10.3.1/cmath **** #undef fmod
  65:/Applications/ARM/arm-none-eabi/include/c++/10.3.1/cmath **** #undef frexp
  66:/Applications/ARM/arm-none-eabi/include/c++/10.3.1/cmath **** #undef ldexp
  67:/Applications/ARM/arm-none-eabi/include/c++/10.3.1/cmath **** #undef log
  68:/Applications/ARM/arm-none-eabi/include/c++/10.3.1/cmath **** #undef log10
  69:/Applications/ARM/arm-none-eabi/include/c++/10.3.1/cmath **** #undef modf
  70:/Applications/ARM/arm-none-eabi/include/c++/10.3.1/cmath **** #undef pow
  71:/Applications/ARM/arm-none-eabi/include/c++/10.3.1/cmath **** #undef sin
  72:/Applications/ARM/arm-none-eabi/include/c++/10.3.1/cmath **** #undef sinh
  73:/Applications/ARM/arm-none-eabi/include/c++/10.3.1/cmath **** #undef sqrt
  74:/Applications/ARM/arm-none-eabi/include/c++/10.3.1/cmath **** #undef tan
  75:/Applications/ARM/arm-none-eabi/include/c++/10.3.1/cmath **** #undef tanh
  76:/Applications/ARM/arm-none-eabi/include/c++/10.3.1/cmath **** 
  77:/Applications/ARM/arm-none-eabi/include/c++/10.3.1/cmath **** extern "C++"
  78:/Applications/ARM/arm-none-eabi/include/c++/10.3.1/cmath **** {
  79:/Applications/ARM/arm-none-eabi/include/c++/10.3.1/cmath **** namespace std _GLIBCXX_VISIBILITY(default)
  80:/Applications/ARM/arm-none-eabi/include/c++/10.3.1/cmath **** {
  81:/Applications/ARM/arm-none-eabi/include/c++/10.3.1/cmath **** _GLIBCXX_BEGIN_NAMESPACE_VERSION
  82:/Applications/ARM/arm-none-eabi/include/c++/10.3.1/cmath **** 
  83:/Applications/ARM/arm-none-eabi/include/c++/10.3.1/cmath ****   using ::acos;
  84:/Applications/ARM/arm-none-eabi/include/c++/10.3.1/cmath **** 
  85:/Applications/ARM/arm-none-eabi/include/c++/10.3.1/cmath **** #ifndef __CORRECT_ISO_CPP_MATH_H_PROTO
  86:/Applications/ARM/arm-none-eabi/include/c++/10.3.1/cmath ****   inline _GLIBCXX_CONSTEXPR float
  87:/Applications/ARM/arm-none-eabi/include/c++/10.3.1/cmath ****   acos(float __x)
  88:/Applications/ARM/arm-none-eabi/include/c++/10.3.1/cmath ****   { return __builtin_acosf(__x); }
  89:/Applications/ARM/arm-none-eabi/include/c++/10.3.1/cmath **** 
  90:/Applications/ARM/arm-none-eabi/include/c++/10.3.1/cmath ****   inline _GLIBCXX_CONSTEXPR long double
  91:/Applications/ARM/arm-none-eabi/include/c++/10.3.1/cmath ****   acos(long double __x)
  92:/Applications/ARM/arm-none-eabi/include/c++/10.3.1/cmath ****   { return __builtin_acosl(__x); }
  93:/Applications/ARM/arm-none-eabi/include/c++/10.3.1/cmath **** #endif
  94:/Applications/ARM/arm-none-eabi/include/c++/10.3.1/cmath **** 
  95:/Applications/ARM/arm-none-eabi/include/c++/10.3.1/cmath ****   template<typename _Tp>
  96:/Applications/ARM/arm-none-eabi/include/c++/10.3.1/cmath ****     inline _GLIBCXX_CONSTEXPR
  97:/Applications/ARM/arm-none-eabi/include/c++/10.3.1/cmath ****     typename __gnu_cxx::__enable_if<__is_integer<_Tp>::__value, 
  98:/Applications/ARM/arm-none-eabi/include/c++/10.3.1/cmath ****                                     double>::__type
  99:/Applications/ARM/arm-none-eabi/include/c++/10.3.1/cmath ****     acos(_Tp __x)
 100:/Applications/ARM/arm-none-eabi/include/c++/10.3.1/cmath ****     { return __builtin_acos(__x); }
 101:/Applications/ARM/arm-none-eabi/include/c++/10.3.1/cmath **** 
 102:/Applications/ARM/arm-none-eabi/include/c++/10.3.1/cmath ****   using ::asin;
 103:/Applications/ARM/arm-none-eabi/include/c++/10.3.1/cmath **** 
 104:/Applications/ARM/arm-none-eabi/include/c++/10.3.1/cmath **** #ifndef __CORRECT_ISO_CPP_MATH_H_PROTO
 105:/Applications/ARM/arm-none-eabi/include/c++/10.3.1/cmath ****   inline _GLIBCXX_CONSTEXPR float
 106:/Applications/ARM/arm-none-eabi/include/c++/10.3.1/cmath ****   asin(float __x)
 107:/Applications/ARM/arm-none-eabi/include/c++/10.3.1/cmath ****   { return __builtin_asinf(__x); }
 108:/Applications/ARM/arm-none-eabi/include/c++/10.3.1/cmath **** 
ARM GAS  /var/folders/fp/915b6f8s6gl4dt9rfrq38g500000gn/T//cchHy16I.s 			page 14


 109:/Applications/ARM/arm-none-eabi/include/c++/10.3.1/cmath ****   inline _GLIBCXX_CONSTEXPR long double
 110:/Applications/ARM/arm-none-eabi/include/c++/10.3.1/cmath ****   asin(long double __x)
 111:/Applications/ARM/arm-none-eabi/include/c++/10.3.1/cmath ****   { return __builtin_asinl(__x); }
 112:/Applications/ARM/arm-none-eabi/include/c++/10.3.1/cmath **** #endif
 113:/Applications/ARM/arm-none-eabi/include/c++/10.3.1/cmath **** 
 114:/Applications/ARM/arm-none-eabi/include/c++/10.3.1/cmath ****   template<typename _Tp>
 115:/Applications/ARM/arm-none-eabi/include/c++/10.3.1/cmath ****     inline _GLIBCXX_CONSTEXPR
 116:/Applications/ARM/arm-none-eabi/include/c++/10.3.1/cmath ****     typename __gnu_cxx::__enable_if<__is_integer<_Tp>::__value,
 117:/Applications/ARM/arm-none-eabi/include/c++/10.3.1/cmath ****                                     double>::__type
 118:/Applications/ARM/arm-none-eabi/include/c++/10.3.1/cmath ****     asin(_Tp __x)
 119:/Applications/ARM/arm-none-eabi/include/c++/10.3.1/cmath ****     { return __builtin_asin(__x); }
 120:/Applications/ARM/arm-none-eabi/include/c++/10.3.1/cmath **** 
 121:/Applications/ARM/arm-none-eabi/include/c++/10.3.1/cmath ****   using ::atan;
 122:/Applications/ARM/arm-none-eabi/include/c++/10.3.1/cmath **** 
 123:/Applications/ARM/arm-none-eabi/include/c++/10.3.1/cmath **** #ifndef __CORRECT_ISO_CPP_MATH_H_PROTO
 124:/Applications/ARM/arm-none-eabi/include/c++/10.3.1/cmath ****   inline _GLIBCXX_CONSTEXPR float
 125:/Applications/ARM/arm-none-eabi/include/c++/10.3.1/cmath ****   atan(float __x)
 126:/Applications/ARM/arm-none-eabi/include/c++/10.3.1/cmath ****   { return __builtin_atanf(__x); }
 127:/Applications/ARM/arm-none-eabi/include/c++/10.3.1/cmath **** 
 128:/Applications/ARM/arm-none-eabi/include/c++/10.3.1/cmath ****   inline _GLIBCXX_CONSTEXPR long double
 129:/Applications/ARM/arm-none-eabi/include/c++/10.3.1/cmath ****   atan(long double __x)
 130:/Applications/ARM/arm-none-eabi/include/c++/10.3.1/cmath ****   { return __builtin_atanl(__x); }
 131:/Applications/ARM/arm-none-eabi/include/c++/10.3.1/cmath **** #endif
 132:/Applications/ARM/arm-none-eabi/include/c++/10.3.1/cmath **** 
 133:/Applications/ARM/arm-none-eabi/include/c++/10.3.1/cmath ****   template<typename _Tp>
 134:/Applications/ARM/arm-none-eabi/include/c++/10.3.1/cmath ****     inline _GLIBCXX_CONSTEXPR
 135:/Applications/ARM/arm-none-eabi/include/c++/10.3.1/cmath ****     typename __gnu_cxx::__enable_if<__is_integer<_Tp>::__value,
 136:/Applications/ARM/arm-none-eabi/include/c++/10.3.1/cmath ****                                     double>::__type
 137:/Applications/ARM/arm-none-eabi/include/c++/10.3.1/cmath ****     atan(_Tp __x)
 138:/Applications/ARM/arm-none-eabi/include/c++/10.3.1/cmath ****     { return __builtin_atan(__x); }
 139:/Applications/ARM/arm-none-eabi/include/c++/10.3.1/cmath **** 
 140:/Applications/ARM/arm-none-eabi/include/c++/10.3.1/cmath ****   using ::atan2;
 141:/Applications/ARM/arm-none-eabi/include/c++/10.3.1/cmath **** 
 142:/Applications/ARM/arm-none-eabi/include/c++/10.3.1/cmath **** #ifndef __CORRECT_ISO_CPP_MATH_H_PROTO
 143:/Applications/ARM/arm-none-eabi/include/c++/10.3.1/cmath ****   inline _GLIBCXX_CONSTEXPR float
 144:/Applications/ARM/arm-none-eabi/include/c++/10.3.1/cmath ****   atan2(float __y, float __x)
 145:/Applications/ARM/arm-none-eabi/include/c++/10.3.1/cmath ****   { return __builtin_atan2f(__y, __x); }
 146:/Applications/ARM/arm-none-eabi/include/c++/10.3.1/cmath **** 
 147:/Applications/ARM/arm-none-eabi/include/c++/10.3.1/cmath ****   inline _GLIBCXX_CONSTEXPR long double
 148:/Applications/ARM/arm-none-eabi/include/c++/10.3.1/cmath ****   atan2(long double __y, long double __x)
 149:/Applications/ARM/arm-none-eabi/include/c++/10.3.1/cmath ****   { return __builtin_atan2l(__y, __x); }
 150:/Applications/ARM/arm-none-eabi/include/c++/10.3.1/cmath **** #endif
 151:/Applications/ARM/arm-none-eabi/include/c++/10.3.1/cmath **** 
 152:/Applications/ARM/arm-none-eabi/include/c++/10.3.1/cmath ****   template<typename _Tp, typename _Up>
 153:/Applications/ARM/arm-none-eabi/include/c++/10.3.1/cmath ****     inline _GLIBCXX_CONSTEXPR
 154:/Applications/ARM/arm-none-eabi/include/c++/10.3.1/cmath ****     typename __gnu_cxx::__promote_2<_Tp, _Up>::__type
 155:/Applications/ARM/arm-none-eabi/include/c++/10.3.1/cmath ****     atan2(_Tp __y, _Up __x)
 156:/Applications/ARM/arm-none-eabi/include/c++/10.3.1/cmath ****     {
 157:/Applications/ARM/arm-none-eabi/include/c++/10.3.1/cmath ****       typedef typename __gnu_cxx::__promote_2<_Tp, _Up>::__type __type;
 158:/Applications/ARM/arm-none-eabi/include/c++/10.3.1/cmath ****       return atan2(__type(__y), __type(__x));
 159:/Applications/ARM/arm-none-eabi/include/c++/10.3.1/cmath ****     }
 160:/Applications/ARM/arm-none-eabi/include/c++/10.3.1/cmath **** 
 161:/Applications/ARM/arm-none-eabi/include/c++/10.3.1/cmath ****   using ::ceil;
 162:/Applications/ARM/arm-none-eabi/include/c++/10.3.1/cmath **** 
 163:/Applications/ARM/arm-none-eabi/include/c++/10.3.1/cmath **** #ifndef __CORRECT_ISO_CPP_MATH_H_PROTO
 164:/Applications/ARM/arm-none-eabi/include/c++/10.3.1/cmath ****   inline _GLIBCXX_CONSTEXPR float
 165:/Applications/ARM/arm-none-eabi/include/c++/10.3.1/cmath ****   ceil(float __x)
ARM GAS  /var/folders/fp/915b6f8s6gl4dt9rfrq38g500000gn/T//cchHy16I.s 			page 15


 166:/Applications/ARM/arm-none-eabi/include/c++/10.3.1/cmath ****   { return __builtin_ceilf(__x); }
 167:/Applications/ARM/arm-none-eabi/include/c++/10.3.1/cmath **** 
 168:/Applications/ARM/arm-none-eabi/include/c++/10.3.1/cmath ****   inline _GLIBCXX_CONSTEXPR long double
 169:/Applications/ARM/arm-none-eabi/include/c++/10.3.1/cmath ****   ceil(long double __x)
 170:/Applications/ARM/arm-none-eabi/include/c++/10.3.1/cmath ****   { return __builtin_ceill(__x); }
 171:/Applications/ARM/arm-none-eabi/include/c++/10.3.1/cmath **** #endif
 172:/Applications/ARM/arm-none-eabi/include/c++/10.3.1/cmath **** 
 173:/Applications/ARM/arm-none-eabi/include/c++/10.3.1/cmath ****   template<typename _Tp>
 174:/Applications/ARM/arm-none-eabi/include/c++/10.3.1/cmath ****     inline _GLIBCXX_CONSTEXPR
 175:/Applications/ARM/arm-none-eabi/include/c++/10.3.1/cmath ****     typename __gnu_cxx::__enable_if<__is_integer<_Tp>::__value, 
 176:/Applications/ARM/arm-none-eabi/include/c++/10.3.1/cmath ****                                     double>::__type
 177:/Applications/ARM/arm-none-eabi/include/c++/10.3.1/cmath ****     ceil(_Tp __x)
 178:/Applications/ARM/arm-none-eabi/include/c++/10.3.1/cmath ****     { return __builtin_ceil(__x); }
 179:/Applications/ARM/arm-none-eabi/include/c++/10.3.1/cmath **** 
 180:/Applications/ARM/arm-none-eabi/include/c++/10.3.1/cmath ****   using ::cos;
 181:/Applications/ARM/arm-none-eabi/include/c++/10.3.1/cmath **** 
 182:/Applications/ARM/arm-none-eabi/include/c++/10.3.1/cmath **** #ifndef __CORRECT_ISO_CPP_MATH_H_PROTO
 183:/Applications/ARM/arm-none-eabi/include/c++/10.3.1/cmath ****   inline _GLIBCXX_CONSTEXPR float
 184:/Applications/ARM/arm-none-eabi/include/c++/10.3.1/cmath ****   cos(float __x)
 185:/Applications/ARM/arm-none-eabi/include/c++/10.3.1/cmath ****   { return __builtin_cosf(__x); }
 186:/Applications/ARM/arm-none-eabi/include/c++/10.3.1/cmath **** 
 187:/Applications/ARM/arm-none-eabi/include/c++/10.3.1/cmath ****   inline _GLIBCXX_CONSTEXPR long double
 188:/Applications/ARM/arm-none-eabi/include/c++/10.3.1/cmath ****   cos(long double __x)
 189:/Applications/ARM/arm-none-eabi/include/c++/10.3.1/cmath ****   { return __builtin_cosl(__x); }
 190:/Applications/ARM/arm-none-eabi/include/c++/10.3.1/cmath **** #endif
 191:/Applications/ARM/arm-none-eabi/include/c++/10.3.1/cmath **** 
 192:/Applications/ARM/arm-none-eabi/include/c++/10.3.1/cmath ****   template<typename _Tp>
 193:/Applications/ARM/arm-none-eabi/include/c++/10.3.1/cmath ****     inline _GLIBCXX_CONSTEXPR
 194:/Applications/ARM/arm-none-eabi/include/c++/10.3.1/cmath ****     typename __gnu_cxx::__enable_if<__is_integer<_Tp>::__value,
 195:/Applications/ARM/arm-none-eabi/include/c++/10.3.1/cmath ****                                     double>::__type
 196:/Applications/ARM/arm-none-eabi/include/c++/10.3.1/cmath ****     cos(_Tp __x)
 197:/Applications/ARM/arm-none-eabi/include/c++/10.3.1/cmath ****     { return __builtin_cos(__x); }
 198:/Applications/ARM/arm-none-eabi/include/c++/10.3.1/cmath **** 
 199:/Applications/ARM/arm-none-eabi/include/c++/10.3.1/cmath ****   using ::cosh;
 200:/Applications/ARM/arm-none-eabi/include/c++/10.3.1/cmath **** 
 201:/Applications/ARM/arm-none-eabi/include/c++/10.3.1/cmath **** #ifndef __CORRECT_ISO_CPP_MATH_H_PROTO
 202:/Applications/ARM/arm-none-eabi/include/c++/10.3.1/cmath ****   inline _GLIBCXX_CONSTEXPR float
 203:/Applications/ARM/arm-none-eabi/include/c++/10.3.1/cmath ****   cosh(float __x)
 204:/Applications/ARM/arm-none-eabi/include/c++/10.3.1/cmath ****   { return __builtin_coshf(__x); }
 205:/Applications/ARM/arm-none-eabi/include/c++/10.3.1/cmath **** 
 206:/Applications/ARM/arm-none-eabi/include/c++/10.3.1/cmath ****   inline _GLIBCXX_CONSTEXPR long double
 207:/Applications/ARM/arm-none-eabi/include/c++/10.3.1/cmath ****   cosh(long double __x)
 208:/Applications/ARM/arm-none-eabi/include/c++/10.3.1/cmath ****   { return __builtin_coshl(__x); }
 209:/Applications/ARM/arm-none-eabi/include/c++/10.3.1/cmath **** #endif
 210:/Applications/ARM/arm-none-eabi/include/c++/10.3.1/cmath **** 
 211:/Applications/ARM/arm-none-eabi/include/c++/10.3.1/cmath ****   template<typename _Tp>
 212:/Applications/ARM/arm-none-eabi/include/c++/10.3.1/cmath ****     inline _GLIBCXX_CONSTEXPR
 213:/Applications/ARM/arm-none-eabi/include/c++/10.3.1/cmath ****     typename __gnu_cxx::__enable_if<__is_integer<_Tp>::__value,
 214:/Applications/ARM/arm-none-eabi/include/c++/10.3.1/cmath ****                                     double>::__type
 215:/Applications/ARM/arm-none-eabi/include/c++/10.3.1/cmath ****     cosh(_Tp __x)
 216:/Applications/ARM/arm-none-eabi/include/c++/10.3.1/cmath ****     { return __builtin_cosh(__x); }
 217:/Applications/ARM/arm-none-eabi/include/c++/10.3.1/cmath **** 
 218:/Applications/ARM/arm-none-eabi/include/c++/10.3.1/cmath ****   using ::exp;
 219:/Applications/ARM/arm-none-eabi/include/c++/10.3.1/cmath **** 
 220:/Applications/ARM/arm-none-eabi/include/c++/10.3.1/cmath **** #ifndef __CORRECT_ISO_CPP_MATH_H_PROTO
 221:/Applications/ARM/arm-none-eabi/include/c++/10.3.1/cmath ****   inline _GLIBCXX_CONSTEXPR float
 222:/Applications/ARM/arm-none-eabi/include/c++/10.3.1/cmath ****   exp(float __x)
ARM GAS  /var/folders/fp/915b6f8s6gl4dt9rfrq38g500000gn/T//cchHy16I.s 			page 16


 223:/Applications/ARM/arm-none-eabi/include/c++/10.3.1/cmath ****   { return __builtin_expf(__x); }
 224:/Applications/ARM/arm-none-eabi/include/c++/10.3.1/cmath **** 
 225:/Applications/ARM/arm-none-eabi/include/c++/10.3.1/cmath ****   inline _GLIBCXX_CONSTEXPR long double
 226:/Applications/ARM/arm-none-eabi/include/c++/10.3.1/cmath ****   exp(long double __x)
 227:/Applications/ARM/arm-none-eabi/include/c++/10.3.1/cmath ****   { return __builtin_expl(__x); }
 228:/Applications/ARM/arm-none-eabi/include/c++/10.3.1/cmath **** #endif
 229:/Applications/ARM/arm-none-eabi/include/c++/10.3.1/cmath **** 
 230:/Applications/ARM/arm-none-eabi/include/c++/10.3.1/cmath ****   template<typename _Tp>
 231:/Applications/ARM/arm-none-eabi/include/c++/10.3.1/cmath ****     inline _GLIBCXX_CONSTEXPR
 232:/Applications/ARM/arm-none-eabi/include/c++/10.3.1/cmath ****     typename __gnu_cxx::__enable_if<__is_integer<_Tp>::__value,
 233:/Applications/ARM/arm-none-eabi/include/c++/10.3.1/cmath ****                                     double>::__type
 234:/Applications/ARM/arm-none-eabi/include/c++/10.3.1/cmath ****     exp(_Tp __x)
 235:/Applications/ARM/arm-none-eabi/include/c++/10.3.1/cmath ****     { return __builtin_exp(__x); }
 236:/Applications/ARM/arm-none-eabi/include/c++/10.3.1/cmath **** 
 237:/Applications/ARM/arm-none-eabi/include/c++/10.3.1/cmath ****   using ::fabs;
 238:/Applications/ARM/arm-none-eabi/include/c++/10.3.1/cmath **** 
 239:/Applications/ARM/arm-none-eabi/include/c++/10.3.1/cmath **** #ifndef __CORRECT_ISO_CPP_MATH_H_PROTO
 240:/Applications/ARM/arm-none-eabi/include/c++/10.3.1/cmath ****   inline _GLIBCXX_CONSTEXPR float
 241:/Applications/ARM/arm-none-eabi/include/c++/10.3.1/cmath ****   fabs(float __x)
 219              		.loc 9 241 3 view .LVU33
 220              	.LBB3251:
 242:/Applications/ARM/arm-none-eabi/include/c++/10.3.1/cmath ****   { return __builtin_fabsf(__x); }
 221              		.loc 9 242 5 view .LVU34
 222              		.loc 9 242 5 is_stmt 0 view .LVU35
 223              	.LBE3251:
 224              	.LBE3250:
 225              		.loc 8 66 22 view .LVU36
 226 0018 9FED075B 		vldr.64	d5, .L12
  65:src/LFO.h     ****         sample = 0.9 * (fabs(sample) - 0.5);
 227              		.loc 8 65 15 view .LVU37
 228 001c B7EEC70B 		vcvt.f32.f64	s0, d7
 229              	.LVL7:
 230              	.LBB3253:
 231              	.LBB3252:
 232              		.loc 9 242 31 view .LVU38
 233 0020 B0EEC00A 		vabs.f32	s0, s0
 234              	.LVL8:
 235              		.loc 9 242 31 view .LVU39
 236              	.LBE3252:
 237              	.LBE3253:
 238              		.loc 8 66 29 view .LVU40
 239 0024 B7EEC00A 		vcvt.f64.f32	d0, s0
 240              		.loc 8 66 38 view .LVU41
 241 0028 30EE440B 		vsub.f64	d0, d0, d4
 242              		.loc 8 66 22 view .LVU42
 243 002c 20EE050B 		vmul.f64	d0, d0, d5
 244              	.LVL9:
  67:src/LFO.h     ****         return sample;
 245              		.loc 8 67 9 is_stmt 1 view .LVU43
  68:src/LFO.h     ****     }
 246              		.loc 8 68 5 is_stmt 0 view .LVU44
 247 0030 B7EEC00B 		vcvt.f32.f64	s0, d0
 248              	.LVL10:
 249              		.loc 8 68 5 view .LVU45
 250 0034 7047     		bx	lr
 251              	.L13:
 252 0036 00BF     		.align	3
ARM GAS  /var/folders/fp/915b6f8s6gl4dt9rfrq38g500000gn/T//cchHy16I.s 			page 17


 253              	.L12:
 254 0038 CDCCCCCC 		.word	-858993459
 255 003c CCCCEC3F 		.word	1072483532
 256              		.cfi_endproc
 257              	.LFE5832:
 259              		.section	.text.__tcf_0,"ax",%progbits
 260              		.align	1
 261              		.p2align 2,,3
 262              		.syntax unified
 263              		.thumb
 264              		.thumb_func
 265              		.fpu fpv5-d16
 267              	__tcf_0:
 268              	.LFB5889:
 269              		.file 10 "src/main_2.cpp"
   1:src/main_2.cpp **** #include "daisysp.h"
   2:src/main_2.cpp **** #include "daisy_seed.h"
   3:src/main_2.cpp **** 
   4:src/main_2.cpp **** #include "SynthVoice.h"
   5:src/main_2.cpp **** #include "Freeze.h"
   6:src/main_2.cpp **** #include "Parameters.h"
   7:src/main_2.cpp **** #include "LFO.h"
   8:src/main_2.cpp **** 
   9:src/main_2.cpp **** using namespace daisysp;
  10:src/main_2.cpp **** using namespace daisy;
  11:src/main_2.cpp **** 
  12:src/main_2.cpp **** DaisySeed sculpt;
  13:src/main_2.cpp **** 
  14:src/main_2.cpp **** MidiHandler<MidiUartTransport> midi;
  15:src/main_2.cpp **** Led led;
  16:src/main_2.cpp **** 
  17:src/main_2.cpp **** 
  18:src/main_2.cpp **** Svf filt;
  19:src/main_2.cpp **** LFO lfo;
  20:src/main_2.cpp **** Freeze freeze = Freeze(44100);
  21:src/main_2.cpp **** DelayLine<float, 44100> delay;
  22:src/main_2.cpp **** 
  23:src/main_2.cpp **** class Voice
  24:src/main_2.cpp **** {
  25:src/main_2.cpp ****   public:
  26:src/main_2.cpp ****     Voice() {}
  27:src/main_2.cpp ****     ~Voice() {}
  28:src/main_2.cpp ****     
  29:src/main_2.cpp ****     void init(float samplerate)
  30:src/main_2.cpp ****     {
  31:src/main_2.cpp ****         active = false;
  32:src/main_2.cpp ****         env.Init(samplerate);
  33:src/main_2.cpp ****         env.SetSustainLevel(0.5f);
  34:src/main_2.cpp ****         env.SetTime(ADSR_SEG_ATTACK, 0.25f);
  35:src/main_2.cpp ****         env.SetTime(ADSR_SEG_DECAY, 0.005f);
  36:src/main_2.cpp ****         env.SetTime(ADSR_SEG_RELEASE, 0.2f);
  37:src/main_2.cpp ****         sub_1.Init(samplerate);
  38:src/main_2.cpp ****         sub_2.Init(samplerate);
  39:src/main_2.cpp ****         filter.init(samplerate);
  40:src/main_2.cpp ****         filter.set_q(6.0f);
  41:src/main_2.cpp ****     }
  42:src/main_2.cpp **** 
ARM GAS  /var/folders/fp/915b6f8s6gl4dt9rfrq38g500000gn/T//cchHy16I.s 			page 18


  43:src/main_2.cpp ****     float process(float input)
  44:src/main_2.cpp ****     {
  45:src/main_2.cpp ****         if(active)
  46:src/main_2.cpp ****         {
  47:src/main_2.cpp ****             float amp, out;
  48:src/main_2.cpp ****             
  49:src/main_2.cpp ****             amp = env.Process(envgate);
  50:src/main_2.cpp ****             if(!env.IsRunning())
  51:src/main_2.cpp ****                 active = false;
  52:src/main_2.cpp ****             
  53:src/main_2.cpp ****             out = filter.process(input);
  54:src/main_2.cpp ****             out += sub_1.Process() * sub_level * 0.1f;
  55:src/main_2.cpp ****             out += sub_2.Process() * sub_level * 0.08f;
  56:src/main_2.cpp ****             
  57:src/main_2.cpp ****             float y = out * (velocity / 127.f) * amp;
  58:src/main_2.cpp ****             
  59:src/main_2.cpp ****             return y;
  60:src/main_2.cpp ****         }
  61:src/main_2.cpp ****         else {
  62:src/main_2.cpp ****             filter.clear_filters();
  63:src/main_2.cpp ****         }
  64:src/main_2.cpp ****         return 0.f;
  65:src/main_2.cpp ****     }
  66:src/main_2.cpp **** 
  67:src/main_2.cpp ****     void note_on(float midi_note, float vel)
  68:src/main_2.cpp ****     {
  69:src/main_2.cpp ****         note     = midi_note;
  70:src/main_2.cpp ****         velocity = vel;
  71:src/main_2.cpp ****         
  72:src/main_2.cpp ****         sub_1.SetFreq(mtof(note - 12));
  73:src/main_2.cpp ****         sub_2.SetFreq(mtof(note - 24));
  74:src/main_2.cpp ****         
  75:src/main_2.cpp ****         filter.set_frequency(mtof(note));
  76:src/main_2.cpp ****         
  77:src/main_2.cpp ****         active  = true;
  78:src/main_2.cpp ****         envgate = true;
  79:src/main_2.cpp ****     }
  80:src/main_2.cpp ****     
  81:src/main_2.cpp **** 
  82:src/main_2.cpp ****     void note_off() { envgate = false; }
  83:src/main_2.cpp **** 
  84:src/main_2.cpp ****     inline bool  is_active() const { return active; }
  85:src/main_2.cpp ****     inline bool  is_released() { return env.GetCurrentSegment() == ADSR_SEG_RELEASE; }
  86:src/main_2.cpp ****     inline float get_note() const { return note; }
  87:src/main_2.cpp **** 
  88:src/main_2.cpp ****     ShapeFilter filter;
  89:src/main_2.cpp ****     Adsr       env;
  90:src/main_2.cpp ****     
  91:src/main_2.cpp ****     float sub_level = 0.2;
  92:src/main_2.cpp ****     
  93:src/main_2.cpp ****   private:
  94:src/main_2.cpp ****     
  95:src/main_2.cpp ****     Oscillator sub_1;
  96:src/main_2.cpp ****     Oscillator sub_2;
  97:src/main_2.cpp **** 
  98:src/main_2.cpp ****     float      note, velocity;
  99:src/main_2.cpp ****     bool       active;
ARM GAS  /var/folders/fp/915b6f8s6gl4dt9rfrq38g500000gn/T//cchHy16I.s 			page 19


 100:src/main_2.cpp ****     bool       envgate;
 101:src/main_2.cpp **** };
 102:src/main_2.cpp **** 
 103:src/main_2.cpp **** template <size_t max_voices>
 104:src/main_2.cpp **** class VoiceManager
 105:src/main_2.cpp **** {
 106:src/main_2.cpp ****   public:
 107:src/main_2.cpp ****     VoiceManager() {}
 108:src/main_2.cpp ****     ~VoiceManager() {}
 109:src/main_2.cpp **** 
 110:src/main_2.cpp ****     void Init(float samplerate)
 111:src/main_2.cpp ****     {
 112:src/main_2.cpp ****         for(size_t i = 0; i < max_voices; i++)
 113:src/main_2.cpp ****         {
 114:src/main_2.cpp ****             voices[i].init(samplerate);
 115:src/main_2.cpp ****         }
 116:src/main_2.cpp ****     }
 117:src/main_2.cpp **** 
 118:src/main_2.cpp ****     float process(float input)
 119:src/main_2.cpp ****     {
 120:src/main_2.cpp ****         float sum = 0.0f;
 121:src/main_2.cpp ****         for(size_t i = 0; i < max_voices; i++)
 122:src/main_2.cpp ****         {
 123:src/main_2.cpp ****             sum += voices[i].process(input);
 124:src/main_2.cpp ****         }
 125:src/main_2.cpp ****         
 126:src/main_2.cpp ****         
 127:src/main_2.cpp ****         return sum;
 128:src/main_2.cpp ****     }
 129:src/main_2.cpp **** 
 130:src/main_2.cpp ****     void note_on(float notenumber, float velocity)
 131:src/main_2.cpp ****     {
 132:src/main_2.cpp ****         Voice *v = find_voice(notenumber);
 133:src/main_2.cpp ****         if(v == NULL)
 134:src/main_2.cpp ****             return;
 135:src/main_2.cpp ****         v->note_on(notenumber, velocity);
 136:src/main_2.cpp ****     }
 137:src/main_2.cpp **** 
 138:src/main_2.cpp ****     void note_off(float notenumber, float velocity)
 139:src/main_2.cpp ****     {
 140:src/main_2.cpp ****         for(size_t i = 0; i < max_voices; i++)
 141:src/main_2.cpp ****         {
 142:src/main_2.cpp ****             Voice *v = &voices[i];
 143:src/main_2.cpp ****             if(v->is_active() && v->get_note() == notenumber)
 144:src/main_2.cpp ****             {
 145:src/main_2.cpp ****                 v->note_off();
 146:src/main_2.cpp ****             }
 147:src/main_2.cpp ****         }
 148:src/main_2.cpp ****     }
 149:src/main_2.cpp **** 
 150:src/main_2.cpp ****     void free_voices()
 151:src/main_2.cpp ****     {
 152:src/main_2.cpp ****         for(size_t i = 0; i < max_voices; i++)
 153:src/main_2.cpp ****         {
 154:src/main_2.cpp ****             voices[i].note_off();
 155:src/main_2.cpp ****         }
 156:src/main_2.cpp ****     }
ARM GAS  /var/folders/fp/915b6f8s6gl4dt9rfrq38g500000gn/T//cchHy16I.s 			page 20


 157:src/main_2.cpp **** 
 158:src/main_2.cpp ****     
 159:src/main_2.cpp ****     void set_stretch(float all_val) {
 160:src/main_2.cpp ****         for(auto& voice : voices) voice.filter.set_stretch(all_val);
 161:src/main_2.cpp ****     }
 162:src/main_2.cpp ****     
 163:src/main_2.cpp ****     void set_stretch_mod(float all_val) {
 164:src/main_2.cpp ****         for(auto& voice : voices) voice.filter.set_stretch_mod(all_val);
 165:src/main_2.cpp ****     }
 166:src/main_2.cpp ****     
 167:src/main_2.cpp ****     
 168:src/main_2.cpp ****     void set_shape(float all_val) {
 169:src/main_2.cpp ****         for(auto& voice : voices) voice.filter.set_shape(all_val);
 170:src/main_2.cpp ****     }
 171:src/main_2.cpp ****     
 172:src/main_2.cpp ****     void set_q(float all_val) {
 173:src/main_2.cpp ****         for(auto& voice : voices) voice.filter.set_q(all_val);
 174:src/main_2.cpp ****     }
 175:src/main_2.cpp ****     
 176:src/main_2.cpp ****     void set_attack(float all_val) {
 177:src/main_2.cpp ****         for(auto& voice : voices) voice.env.SetTime(ADSR_SEG_ATTACK, all_val / 1000.0f);
 178:src/main_2.cpp ****     }
 179:src/main_2.cpp ****     
 180:src/main_2.cpp ****     void set_decay(float all_val) {
 181:src/main_2.cpp ****         for(auto& voice : voices) voice.env.SetTime(ADSR_SEG_DECAY, all_val / 1000.0f);
 182:src/main_2.cpp ****     }
 183:src/main_2.cpp ****     
 184:src/main_2.cpp ****     void set_sustain(float all_val) {
 185:src/main_2.cpp ****         for(auto& voice : voices) voice.env.SetSustainLevel(all_val);
 186:src/main_2.cpp ****     }
 187:src/main_2.cpp ****     
 188:src/main_2.cpp ****     void set_release(float all_val) {
 189:src/main_2.cpp ****         for(auto& voice : voices) voice.env.SetTime(ADSR_SEG_RELEASE, all_val / 1000.0f);
 190:src/main_2.cpp ****     }
 191:src/main_2.cpp ****     
 192:src/main_2.cpp ****     void set_sub(float all_val) {
 193:src/main_2.cpp ****         for(auto& voice : voices) voice.sub_level = all_val;
 194:src/main_2.cpp ****     }
 195:src/main_2.cpp **** 
 196:src/main_2.cpp ****   private:
 197:src/main_2.cpp ****     Voice  voices[max_voices];
 198:src/main_2.cpp ****     Voice* find_voice(float note)
 199:src/main_2.cpp ****     {
 200:src/main_2.cpp ****         Voice *v = NULL;
 201:src/main_2.cpp ****         
 202:src/main_2.cpp ****         for(size_t i = 0; i < max_voices; i++)
 203:src/main_2.cpp ****         {
 204:src/main_2.cpp ****             if(voices[i].get_note() == note)
 205:src/main_2.cpp ****             {
 206:src/main_2.cpp ****                 return &voices[i];
 207:src/main_2.cpp ****             }
 208:src/main_2.cpp ****         }
 209:src/main_2.cpp ****         
 210:src/main_2.cpp ****         for(size_t i = 0; i < max_voices; i++)
 211:src/main_2.cpp ****         {
 212:src/main_2.cpp ****             if(!voices[i].is_active())
 213:src/main_2.cpp ****             {
ARM GAS  /var/folders/fp/915b6f8s6gl4dt9rfrq38g500000gn/T//cchHy16I.s 			page 21


 214:src/main_2.cpp ****                 return &voices[i];
 215:src/main_2.cpp ****             }
 216:src/main_2.cpp ****         }
 217:src/main_2.cpp ****         
 218:src/main_2.cpp ****         for(size_t i = 0; i < max_voices; i++)
 219:src/main_2.cpp ****         {
 220:src/main_2.cpp ****             if(voices[i].is_released())
 221:src/main_2.cpp ****             {
 222:src/main_2.cpp ****                 return &voices[i];
 223:src/main_2.cpp ****             }
 224:src/main_2.cpp ****         }
 225:src/main_2.cpp ****         
 226:src/main_2.cpp **** 
 227:src/main_2.cpp ****         
 228:src/main_2.cpp ****         return v;
 229:src/main_2.cpp ****     }
 230:src/main_2.cpp **** };
 231:src/main_2.cpp **** 
 232:src/main_2.cpp **** static VoiceManager<7> voice_handler;
 233:src/main_2.cpp **** 
 234:src/main_2.cpp **** static float trig = 0;
 235:src/main_2.cpp **** 
 236:src/main_2.cpp **** static auto generator = std::default_random_engine();  // Generates random integers
 237:src/main_2.cpp **** static auto distribution = std::uniform_real_distribution<float>(-0.999, +0.999);
 238:src/main_2.cpp **** 
 239:src/main_2.cpp **** constexpr int num_potmeters = 10;
 240:src/main_2.cpp **** constexpr int num_switches = 2;
 241:src/main_2.cpp **** 
 242:src/main_2.cpp **** AnalogControl switches[num_switches];
 243:src/main_2.cpp **** 
 244:src/main_2.cpp **** 
 245:src/main_2.cpp **** 
 246:src/main_2.cpp **** float smooth_time;
 247:src/main_2.cpp **** float smooth_cutoff;
 248:src/main_2.cpp **** 
 249:src/main_2.cpp **** float lpf_mod = 0.0f;
 250:src/main_2.cpp **** float delay_mod = 0.0f;
 251:src/main_2.cpp **** float stretch_mod = 0.0f;
 252:src/main_2.cpp **** 
 253:src/main_2.cpp **** 
 254:src/main_2.cpp **** float lfo_depth = 1.0f;
 255:src/main_2.cpp **** float lfo_destination = 1.0f;
 256:src/main_2.cpp **** 
 257:src/main_2.cpp **** void apply_lfo() {
 258:src/main_2.cpp ****     
 259:src/main_2.cpp ****     float lfo_value = lfo.tick();
 260:src/main_2.cpp ****     
 261:src/main_2.cpp ****     led.Set(lfo_value > 0.0f);
 262:src/main_2.cpp ****     
 263:src/main_2.cpp ****     // Modulator functions
 264:src/main_2.cpp ****     static const std::function<void(float)> mod_targets[3] = {
 265:src/main_2.cpp ****         [](float mod) {
 266:src/main_2.cpp ****             delay_mod = mod * 5000.0f;
 267:src/main_2.cpp ****     },
 268:src/main_2.cpp ****         [](float mod) {
 269:src/main_2.cpp ****             lpf_mod = mod * 8000.0f;
 270:src/main_2.cpp ****             
ARM GAS  /var/folders/fp/915b6f8s6gl4dt9rfrq38g500000gn/T//cchHy16I.s 			page 22


 271:src/main_2.cpp ****     },
 272:src/main_2.cpp ****         [](float mod) {
 273:src/main_2.cpp ****             stretch_mod = mod;
 274:src/main_2.cpp ****     }
 275:src/main_2.cpp ****     };
 270              		.loc 10 275 5 is_stmt 1 view -0
 271              		.cfi_startproc
 272              		@ args = 0, pretend = 0, frame = 0
 273              		@ frame_needed = 0, uses_anonymous_args = 0
 274 0000 38B5     		push	{r3, r4, r5, lr}
 275              		.cfi_def_cfa_offset 16
 276              		.cfi_offset 3, -16
 277              		.cfi_offset 4, -12
 278              		.cfi_offset 5, -8
 279              		.cfi_offset 14, -4
 280              		.loc 10 275 5 is_stmt 0 view .LVU47
 281 0002 074C     		ldr	r4, .L22
 282 0004 A4F13005 		sub	r5, r4, #48
 283              	.L16:
 284              	.LBB3260:
 285              	.LBB3261:
 286              	.LBB3262:
 287              		.file 11 "/Applications/ARM/arm-none-eabi/include/c++/10.3.1/bits/std_function.h"
   1:/Applications/ARM/arm-none-eabi/include/c++/10.3.1/bits/std_function.h **** // Implementation of std::function -*- C++ -*-
   2:/Applications/ARM/arm-none-eabi/include/c++/10.3.1/bits/std_function.h **** 
   3:/Applications/ARM/arm-none-eabi/include/c++/10.3.1/bits/std_function.h **** // Copyright (C) 2004-2020 Free Software Foundation, Inc.
   4:/Applications/ARM/arm-none-eabi/include/c++/10.3.1/bits/std_function.h **** //
   5:/Applications/ARM/arm-none-eabi/include/c++/10.3.1/bits/std_function.h **** // This file is part of the GNU ISO C++ Library.  This library is free
   6:/Applications/ARM/arm-none-eabi/include/c++/10.3.1/bits/std_function.h **** // software; you can redistribute it and/or modify it under the
   7:/Applications/ARM/arm-none-eabi/include/c++/10.3.1/bits/std_function.h **** // terms of the GNU General Public License as published by the
   8:/Applications/ARM/arm-none-eabi/include/c++/10.3.1/bits/std_function.h **** // Free Software Foundation; either version 3, or (at your option)
   9:/Applications/ARM/arm-none-eabi/include/c++/10.3.1/bits/std_function.h **** // any later version.
  10:/Applications/ARM/arm-none-eabi/include/c++/10.3.1/bits/std_function.h **** 
  11:/Applications/ARM/arm-none-eabi/include/c++/10.3.1/bits/std_function.h **** // This library is distributed in the hope that it will be useful,
  12:/Applications/ARM/arm-none-eabi/include/c++/10.3.1/bits/std_function.h **** // but WITHOUT ANY WARRANTY; without even the implied warranty of
  13:/Applications/ARM/arm-none-eabi/include/c++/10.3.1/bits/std_function.h **** // MERCHANTABILITY or FITNESS FOR A PARTICULAR PURPOSE.  See the
  14:/Applications/ARM/arm-none-eabi/include/c++/10.3.1/bits/std_function.h **** // GNU General Public License for more details.
  15:/Applications/ARM/arm-none-eabi/include/c++/10.3.1/bits/std_function.h **** 
  16:/Applications/ARM/arm-none-eabi/include/c++/10.3.1/bits/std_function.h **** // Under Section 7 of GPL version 3, you are granted additional
  17:/Applications/ARM/arm-none-eabi/include/c++/10.3.1/bits/std_function.h **** // permissions described in the GCC Runtime Library Exception, version
  18:/Applications/ARM/arm-none-eabi/include/c++/10.3.1/bits/std_function.h **** // 3.1, as published by the Free Software Foundation.
  19:/Applications/ARM/arm-none-eabi/include/c++/10.3.1/bits/std_function.h **** 
  20:/Applications/ARM/arm-none-eabi/include/c++/10.3.1/bits/std_function.h **** // You should have received a copy of the GNU General Public License and
  21:/Applications/ARM/arm-none-eabi/include/c++/10.3.1/bits/std_function.h **** // a copy of the GCC Runtime Library Exception along with this program;
  22:/Applications/ARM/arm-none-eabi/include/c++/10.3.1/bits/std_function.h **** // see the files COPYING3 and COPYING.RUNTIME respectively.  If not, see
  23:/Applications/ARM/arm-none-eabi/include/c++/10.3.1/bits/std_function.h **** // <http://www.gnu.org/licenses/>.
  24:/Applications/ARM/arm-none-eabi/include/c++/10.3.1/bits/std_function.h **** 
  25:/Applications/ARM/arm-none-eabi/include/c++/10.3.1/bits/std_function.h **** /** @file include/bits/std_function.h
  26:/Applications/ARM/arm-none-eabi/include/c++/10.3.1/bits/std_function.h ****  *  This is an internal header file, included by other library headers.
  27:/Applications/ARM/arm-none-eabi/include/c++/10.3.1/bits/std_function.h ****  *  Do not attempt to use it directly. @headername{functional}
  28:/Applications/ARM/arm-none-eabi/include/c++/10.3.1/bits/std_function.h ****  */
  29:/Applications/ARM/arm-none-eabi/include/c++/10.3.1/bits/std_function.h **** 
  30:/Applications/ARM/arm-none-eabi/include/c++/10.3.1/bits/std_function.h **** #ifndef _GLIBCXX_STD_FUNCTION_H
  31:/Applications/ARM/arm-none-eabi/include/c++/10.3.1/bits/std_function.h **** #define _GLIBCXX_STD_FUNCTION_H 1
  32:/Applications/ARM/arm-none-eabi/include/c++/10.3.1/bits/std_function.h **** 
  33:/Applications/ARM/arm-none-eabi/include/c++/10.3.1/bits/std_function.h **** #pragma GCC system_header
  34:/Applications/ARM/arm-none-eabi/include/c++/10.3.1/bits/std_function.h **** 
ARM GAS  /var/folders/fp/915b6f8s6gl4dt9rfrq38g500000gn/T//cchHy16I.s 			page 23


  35:/Applications/ARM/arm-none-eabi/include/c++/10.3.1/bits/std_function.h **** #if __cplusplus < 201103L
  36:/Applications/ARM/arm-none-eabi/include/c++/10.3.1/bits/std_function.h **** # include <bits/c++0x_warning.h>
  37:/Applications/ARM/arm-none-eabi/include/c++/10.3.1/bits/std_function.h **** #else
  38:/Applications/ARM/arm-none-eabi/include/c++/10.3.1/bits/std_function.h **** 
  39:/Applications/ARM/arm-none-eabi/include/c++/10.3.1/bits/std_function.h **** #if __cpp_rtti
  40:/Applications/ARM/arm-none-eabi/include/c++/10.3.1/bits/std_function.h **** # include <typeinfo>
  41:/Applications/ARM/arm-none-eabi/include/c++/10.3.1/bits/std_function.h **** #endif
  42:/Applications/ARM/arm-none-eabi/include/c++/10.3.1/bits/std_function.h **** #include <bits/stl_function.h>
  43:/Applications/ARM/arm-none-eabi/include/c++/10.3.1/bits/std_function.h **** #include <bits/invoke.h>
  44:/Applications/ARM/arm-none-eabi/include/c++/10.3.1/bits/std_function.h **** #include <bits/refwrap.h>
  45:/Applications/ARM/arm-none-eabi/include/c++/10.3.1/bits/std_function.h **** #include <bits/functexcept.h>
  46:/Applications/ARM/arm-none-eabi/include/c++/10.3.1/bits/std_function.h **** 
  47:/Applications/ARM/arm-none-eabi/include/c++/10.3.1/bits/std_function.h **** namespace std _GLIBCXX_VISIBILITY(default)
  48:/Applications/ARM/arm-none-eabi/include/c++/10.3.1/bits/std_function.h **** {
  49:/Applications/ARM/arm-none-eabi/include/c++/10.3.1/bits/std_function.h **** _GLIBCXX_BEGIN_NAMESPACE_VERSION
  50:/Applications/ARM/arm-none-eabi/include/c++/10.3.1/bits/std_function.h **** 
  51:/Applications/ARM/arm-none-eabi/include/c++/10.3.1/bits/std_function.h ****   /**
  52:/Applications/ARM/arm-none-eabi/include/c++/10.3.1/bits/std_function.h ****    *  @brief Exception class thrown when class template function's
  53:/Applications/ARM/arm-none-eabi/include/c++/10.3.1/bits/std_function.h ****    *  operator() is called with an empty target.
  54:/Applications/ARM/arm-none-eabi/include/c++/10.3.1/bits/std_function.h ****    *  @ingroup exceptions
  55:/Applications/ARM/arm-none-eabi/include/c++/10.3.1/bits/std_function.h ****    */
  56:/Applications/ARM/arm-none-eabi/include/c++/10.3.1/bits/std_function.h ****   class bad_function_call : public std::exception
  57:/Applications/ARM/arm-none-eabi/include/c++/10.3.1/bits/std_function.h ****   {
  58:/Applications/ARM/arm-none-eabi/include/c++/10.3.1/bits/std_function.h ****   public:
  59:/Applications/ARM/arm-none-eabi/include/c++/10.3.1/bits/std_function.h ****     virtual ~bad_function_call() noexcept;
  60:/Applications/ARM/arm-none-eabi/include/c++/10.3.1/bits/std_function.h **** 
  61:/Applications/ARM/arm-none-eabi/include/c++/10.3.1/bits/std_function.h ****     const char* what() const noexcept;
  62:/Applications/ARM/arm-none-eabi/include/c++/10.3.1/bits/std_function.h ****   };
  63:/Applications/ARM/arm-none-eabi/include/c++/10.3.1/bits/std_function.h **** 
  64:/Applications/ARM/arm-none-eabi/include/c++/10.3.1/bits/std_function.h ****   /**
  65:/Applications/ARM/arm-none-eabi/include/c++/10.3.1/bits/std_function.h ****    *  Trait identifying "location-invariant" types, meaning that the
  66:/Applications/ARM/arm-none-eabi/include/c++/10.3.1/bits/std_function.h ****    *  address of the object (or any of its members) will not escape.
  67:/Applications/ARM/arm-none-eabi/include/c++/10.3.1/bits/std_function.h ****    *  Trivially copyable types are location-invariant and users can
  68:/Applications/ARM/arm-none-eabi/include/c++/10.3.1/bits/std_function.h ****    *  specialize this trait for other types.
  69:/Applications/ARM/arm-none-eabi/include/c++/10.3.1/bits/std_function.h ****    */
  70:/Applications/ARM/arm-none-eabi/include/c++/10.3.1/bits/std_function.h ****   template<typename _Tp>
  71:/Applications/ARM/arm-none-eabi/include/c++/10.3.1/bits/std_function.h ****     struct __is_location_invariant
  72:/Applications/ARM/arm-none-eabi/include/c++/10.3.1/bits/std_function.h ****     : is_trivially_copyable<_Tp>::type
  73:/Applications/ARM/arm-none-eabi/include/c++/10.3.1/bits/std_function.h ****     { };
  74:/Applications/ARM/arm-none-eabi/include/c++/10.3.1/bits/std_function.h **** 
  75:/Applications/ARM/arm-none-eabi/include/c++/10.3.1/bits/std_function.h ****   class _Undefined_class;
  76:/Applications/ARM/arm-none-eabi/include/c++/10.3.1/bits/std_function.h **** 
  77:/Applications/ARM/arm-none-eabi/include/c++/10.3.1/bits/std_function.h ****   union _Nocopy_types
  78:/Applications/ARM/arm-none-eabi/include/c++/10.3.1/bits/std_function.h ****   {
  79:/Applications/ARM/arm-none-eabi/include/c++/10.3.1/bits/std_function.h ****     void*       _M_object;
  80:/Applications/ARM/arm-none-eabi/include/c++/10.3.1/bits/std_function.h ****     const void* _M_const_object;
  81:/Applications/ARM/arm-none-eabi/include/c++/10.3.1/bits/std_function.h ****     void (*_M_function_pointer)();
  82:/Applications/ARM/arm-none-eabi/include/c++/10.3.1/bits/std_function.h ****     void (_Undefined_class::*_M_member_pointer)();
  83:/Applications/ARM/arm-none-eabi/include/c++/10.3.1/bits/std_function.h ****   };
  84:/Applications/ARM/arm-none-eabi/include/c++/10.3.1/bits/std_function.h **** 
  85:/Applications/ARM/arm-none-eabi/include/c++/10.3.1/bits/std_function.h ****   union [[gnu::may_alias]] _Any_data
  86:/Applications/ARM/arm-none-eabi/include/c++/10.3.1/bits/std_function.h ****   {
  87:/Applications/ARM/arm-none-eabi/include/c++/10.3.1/bits/std_function.h ****     void*       _M_access()       { return &_M_pod_data[0]; }
  88:/Applications/ARM/arm-none-eabi/include/c++/10.3.1/bits/std_function.h ****     const void* _M_access() const { return &_M_pod_data[0]; }
  89:/Applications/ARM/arm-none-eabi/include/c++/10.3.1/bits/std_function.h **** 
  90:/Applications/ARM/arm-none-eabi/include/c++/10.3.1/bits/std_function.h ****     template<typename _Tp>
  91:/Applications/ARM/arm-none-eabi/include/c++/10.3.1/bits/std_function.h ****       _Tp&
ARM GAS  /var/folders/fp/915b6f8s6gl4dt9rfrq38g500000gn/T//cchHy16I.s 			page 24


  92:/Applications/ARM/arm-none-eabi/include/c++/10.3.1/bits/std_function.h ****       _M_access()
  93:/Applications/ARM/arm-none-eabi/include/c++/10.3.1/bits/std_function.h ****       { return *static_cast<_Tp*>(_M_access()); }
  94:/Applications/ARM/arm-none-eabi/include/c++/10.3.1/bits/std_function.h **** 
  95:/Applications/ARM/arm-none-eabi/include/c++/10.3.1/bits/std_function.h ****     template<typename _Tp>
  96:/Applications/ARM/arm-none-eabi/include/c++/10.3.1/bits/std_function.h ****       const _Tp&
  97:/Applications/ARM/arm-none-eabi/include/c++/10.3.1/bits/std_function.h ****       _M_access() const
  98:/Applications/ARM/arm-none-eabi/include/c++/10.3.1/bits/std_function.h ****       { return *static_cast<const _Tp*>(_M_access()); }
  99:/Applications/ARM/arm-none-eabi/include/c++/10.3.1/bits/std_function.h **** 
 100:/Applications/ARM/arm-none-eabi/include/c++/10.3.1/bits/std_function.h ****     _Nocopy_types _M_unused;
 101:/Applications/ARM/arm-none-eabi/include/c++/10.3.1/bits/std_function.h ****     char _M_pod_data[sizeof(_Nocopy_types)];
 102:/Applications/ARM/arm-none-eabi/include/c++/10.3.1/bits/std_function.h ****   };
 103:/Applications/ARM/arm-none-eabi/include/c++/10.3.1/bits/std_function.h **** 
 104:/Applications/ARM/arm-none-eabi/include/c++/10.3.1/bits/std_function.h ****   enum _Manager_operation
 105:/Applications/ARM/arm-none-eabi/include/c++/10.3.1/bits/std_function.h ****   {
 106:/Applications/ARM/arm-none-eabi/include/c++/10.3.1/bits/std_function.h ****     __get_type_info,
 107:/Applications/ARM/arm-none-eabi/include/c++/10.3.1/bits/std_function.h ****     __get_functor_ptr,
 108:/Applications/ARM/arm-none-eabi/include/c++/10.3.1/bits/std_function.h ****     __clone_functor,
 109:/Applications/ARM/arm-none-eabi/include/c++/10.3.1/bits/std_function.h ****     __destroy_functor
 110:/Applications/ARM/arm-none-eabi/include/c++/10.3.1/bits/std_function.h ****   };
 111:/Applications/ARM/arm-none-eabi/include/c++/10.3.1/bits/std_function.h **** 
 112:/Applications/ARM/arm-none-eabi/include/c++/10.3.1/bits/std_function.h ****   template<typename _Signature>
 113:/Applications/ARM/arm-none-eabi/include/c++/10.3.1/bits/std_function.h ****     class function;
 114:/Applications/ARM/arm-none-eabi/include/c++/10.3.1/bits/std_function.h **** 
 115:/Applications/ARM/arm-none-eabi/include/c++/10.3.1/bits/std_function.h ****   /// Base class of all polymorphic function object wrappers.
 116:/Applications/ARM/arm-none-eabi/include/c++/10.3.1/bits/std_function.h ****   class _Function_base
 117:/Applications/ARM/arm-none-eabi/include/c++/10.3.1/bits/std_function.h ****   {
 118:/Applications/ARM/arm-none-eabi/include/c++/10.3.1/bits/std_function.h ****   public:
 119:/Applications/ARM/arm-none-eabi/include/c++/10.3.1/bits/std_function.h ****     static const size_t _M_max_size = sizeof(_Nocopy_types);
 120:/Applications/ARM/arm-none-eabi/include/c++/10.3.1/bits/std_function.h ****     static const size_t _M_max_align = __alignof__(_Nocopy_types);
 121:/Applications/ARM/arm-none-eabi/include/c++/10.3.1/bits/std_function.h **** 
 122:/Applications/ARM/arm-none-eabi/include/c++/10.3.1/bits/std_function.h ****     template<typename _Functor>
 123:/Applications/ARM/arm-none-eabi/include/c++/10.3.1/bits/std_function.h ****       class _Base_manager
 124:/Applications/ARM/arm-none-eabi/include/c++/10.3.1/bits/std_function.h ****       {
 125:/Applications/ARM/arm-none-eabi/include/c++/10.3.1/bits/std_function.h ****       protected:
 126:/Applications/ARM/arm-none-eabi/include/c++/10.3.1/bits/std_function.h **** 	static const bool __stored_locally =
 127:/Applications/ARM/arm-none-eabi/include/c++/10.3.1/bits/std_function.h **** 	(__is_location_invariant<_Functor>::value
 128:/Applications/ARM/arm-none-eabi/include/c++/10.3.1/bits/std_function.h **** 	 && sizeof(_Functor) <= _M_max_size
 129:/Applications/ARM/arm-none-eabi/include/c++/10.3.1/bits/std_function.h **** 	 && __alignof__(_Functor) <= _M_max_align
 130:/Applications/ARM/arm-none-eabi/include/c++/10.3.1/bits/std_function.h **** 	 && (_M_max_align % __alignof__(_Functor) == 0));
 131:/Applications/ARM/arm-none-eabi/include/c++/10.3.1/bits/std_function.h **** 
 132:/Applications/ARM/arm-none-eabi/include/c++/10.3.1/bits/std_function.h **** 	typedef integral_constant<bool, __stored_locally> _Local_storage;
 133:/Applications/ARM/arm-none-eabi/include/c++/10.3.1/bits/std_function.h **** 
 134:/Applications/ARM/arm-none-eabi/include/c++/10.3.1/bits/std_function.h **** 	// Retrieve a pointer to the function object
 135:/Applications/ARM/arm-none-eabi/include/c++/10.3.1/bits/std_function.h **** 	static _Functor*
 136:/Applications/ARM/arm-none-eabi/include/c++/10.3.1/bits/std_function.h **** 	_M_get_pointer(const _Any_data& __source)
 137:/Applications/ARM/arm-none-eabi/include/c++/10.3.1/bits/std_function.h **** 	{
 138:/Applications/ARM/arm-none-eabi/include/c++/10.3.1/bits/std_function.h **** 	  if _GLIBCXX17_CONSTEXPR (__stored_locally)
 139:/Applications/ARM/arm-none-eabi/include/c++/10.3.1/bits/std_function.h **** 	    {
 140:/Applications/ARM/arm-none-eabi/include/c++/10.3.1/bits/std_function.h **** 	      const _Functor& __f = __source._M_access<_Functor>();
 141:/Applications/ARM/arm-none-eabi/include/c++/10.3.1/bits/std_function.h **** 	      return const_cast<_Functor*>(std::__addressof(__f));
 142:/Applications/ARM/arm-none-eabi/include/c++/10.3.1/bits/std_function.h **** 	    }
 143:/Applications/ARM/arm-none-eabi/include/c++/10.3.1/bits/std_function.h **** 	  else // have stored a pointer
 144:/Applications/ARM/arm-none-eabi/include/c++/10.3.1/bits/std_function.h **** 	    return __source._M_access<_Functor*>();
 145:/Applications/ARM/arm-none-eabi/include/c++/10.3.1/bits/std_function.h **** 	}
 146:/Applications/ARM/arm-none-eabi/include/c++/10.3.1/bits/std_function.h **** 
 147:/Applications/ARM/arm-none-eabi/include/c++/10.3.1/bits/std_function.h **** 	// Clone a location-invariant function object that fits within
 148:/Applications/ARM/arm-none-eabi/include/c++/10.3.1/bits/std_function.h **** 	// an _Any_data structure.
ARM GAS  /var/folders/fp/915b6f8s6gl4dt9rfrq38g500000gn/T//cchHy16I.s 			page 25


 149:/Applications/ARM/arm-none-eabi/include/c++/10.3.1/bits/std_function.h **** 	static void
 150:/Applications/ARM/arm-none-eabi/include/c++/10.3.1/bits/std_function.h **** 	_M_clone(_Any_data& __dest, const _Any_data& __source, true_type)
 151:/Applications/ARM/arm-none-eabi/include/c++/10.3.1/bits/std_function.h **** 	{
 152:/Applications/ARM/arm-none-eabi/include/c++/10.3.1/bits/std_function.h **** 	  ::new (__dest._M_access()) _Functor(__source._M_access<_Functor>());
 153:/Applications/ARM/arm-none-eabi/include/c++/10.3.1/bits/std_function.h **** 	}
 154:/Applications/ARM/arm-none-eabi/include/c++/10.3.1/bits/std_function.h **** 
 155:/Applications/ARM/arm-none-eabi/include/c++/10.3.1/bits/std_function.h **** 	// Clone a function object that is not location-invariant or
 156:/Applications/ARM/arm-none-eabi/include/c++/10.3.1/bits/std_function.h **** 	// that cannot fit into an _Any_data structure.
 157:/Applications/ARM/arm-none-eabi/include/c++/10.3.1/bits/std_function.h **** 	static void
 158:/Applications/ARM/arm-none-eabi/include/c++/10.3.1/bits/std_function.h **** 	_M_clone(_Any_data& __dest, const _Any_data& __source, false_type)
 159:/Applications/ARM/arm-none-eabi/include/c++/10.3.1/bits/std_function.h **** 	{
 160:/Applications/ARM/arm-none-eabi/include/c++/10.3.1/bits/std_function.h **** 	  __dest._M_access<_Functor*>() =
 161:/Applications/ARM/arm-none-eabi/include/c++/10.3.1/bits/std_function.h **** 	    new _Functor(*__source._M_access<const _Functor*>());
 162:/Applications/ARM/arm-none-eabi/include/c++/10.3.1/bits/std_function.h **** 	}
 163:/Applications/ARM/arm-none-eabi/include/c++/10.3.1/bits/std_function.h **** 
 164:/Applications/ARM/arm-none-eabi/include/c++/10.3.1/bits/std_function.h **** 	// Destroying a location-invariant object may still require
 165:/Applications/ARM/arm-none-eabi/include/c++/10.3.1/bits/std_function.h **** 	// destruction.
 166:/Applications/ARM/arm-none-eabi/include/c++/10.3.1/bits/std_function.h **** 	static void
 167:/Applications/ARM/arm-none-eabi/include/c++/10.3.1/bits/std_function.h **** 	_M_destroy(_Any_data& __victim, true_type)
 168:/Applications/ARM/arm-none-eabi/include/c++/10.3.1/bits/std_function.h **** 	{
 169:/Applications/ARM/arm-none-eabi/include/c++/10.3.1/bits/std_function.h **** 	  __victim._M_access<_Functor>().~_Functor();
 170:/Applications/ARM/arm-none-eabi/include/c++/10.3.1/bits/std_function.h **** 	}
 171:/Applications/ARM/arm-none-eabi/include/c++/10.3.1/bits/std_function.h **** 
 172:/Applications/ARM/arm-none-eabi/include/c++/10.3.1/bits/std_function.h **** 	// Destroying an object located on the heap.
 173:/Applications/ARM/arm-none-eabi/include/c++/10.3.1/bits/std_function.h **** 	static void
 174:/Applications/ARM/arm-none-eabi/include/c++/10.3.1/bits/std_function.h **** 	_M_destroy(_Any_data& __victim, false_type)
 175:/Applications/ARM/arm-none-eabi/include/c++/10.3.1/bits/std_function.h **** 	{
 176:/Applications/ARM/arm-none-eabi/include/c++/10.3.1/bits/std_function.h **** 	  delete __victim._M_access<_Functor*>();
 177:/Applications/ARM/arm-none-eabi/include/c++/10.3.1/bits/std_function.h **** 	}
 178:/Applications/ARM/arm-none-eabi/include/c++/10.3.1/bits/std_function.h **** 
 179:/Applications/ARM/arm-none-eabi/include/c++/10.3.1/bits/std_function.h ****       public:
 180:/Applications/ARM/arm-none-eabi/include/c++/10.3.1/bits/std_function.h **** 	static bool
 181:/Applications/ARM/arm-none-eabi/include/c++/10.3.1/bits/std_function.h **** 	_M_manager(_Any_data& __dest, const _Any_data& __source,
 182:/Applications/ARM/arm-none-eabi/include/c++/10.3.1/bits/std_function.h **** 		   _Manager_operation __op)
 183:/Applications/ARM/arm-none-eabi/include/c++/10.3.1/bits/std_function.h **** 	{
 184:/Applications/ARM/arm-none-eabi/include/c++/10.3.1/bits/std_function.h **** 	  switch (__op)
 185:/Applications/ARM/arm-none-eabi/include/c++/10.3.1/bits/std_function.h **** 	    {
 186:/Applications/ARM/arm-none-eabi/include/c++/10.3.1/bits/std_function.h **** #if __cpp_rtti
 187:/Applications/ARM/arm-none-eabi/include/c++/10.3.1/bits/std_function.h **** 	    case __get_type_info:
 188:/Applications/ARM/arm-none-eabi/include/c++/10.3.1/bits/std_function.h **** 	      __dest._M_access<const type_info*>() = &typeid(_Functor);
 189:/Applications/ARM/arm-none-eabi/include/c++/10.3.1/bits/std_function.h **** 	      break;
 190:/Applications/ARM/arm-none-eabi/include/c++/10.3.1/bits/std_function.h **** #endif
 191:/Applications/ARM/arm-none-eabi/include/c++/10.3.1/bits/std_function.h **** 	    case __get_functor_ptr:
 192:/Applications/ARM/arm-none-eabi/include/c++/10.3.1/bits/std_function.h **** 	      __dest._M_access<_Functor*>() = _M_get_pointer(__source);
 193:/Applications/ARM/arm-none-eabi/include/c++/10.3.1/bits/std_function.h **** 	      break;
 194:/Applications/ARM/arm-none-eabi/include/c++/10.3.1/bits/std_function.h **** 
 195:/Applications/ARM/arm-none-eabi/include/c++/10.3.1/bits/std_function.h **** 	    case __clone_functor:
 196:/Applications/ARM/arm-none-eabi/include/c++/10.3.1/bits/std_function.h **** 	      _M_clone(__dest, __source, _Local_storage());
 197:/Applications/ARM/arm-none-eabi/include/c++/10.3.1/bits/std_function.h **** 	      break;
 198:/Applications/ARM/arm-none-eabi/include/c++/10.3.1/bits/std_function.h **** 
 199:/Applications/ARM/arm-none-eabi/include/c++/10.3.1/bits/std_function.h **** 	    case __destroy_functor:
 200:/Applications/ARM/arm-none-eabi/include/c++/10.3.1/bits/std_function.h **** 	      _M_destroy(__dest, _Local_storage());
 201:/Applications/ARM/arm-none-eabi/include/c++/10.3.1/bits/std_function.h **** 	      break;
 202:/Applications/ARM/arm-none-eabi/include/c++/10.3.1/bits/std_function.h **** 	    }
 203:/Applications/ARM/arm-none-eabi/include/c++/10.3.1/bits/std_function.h **** 	  return false;
 204:/Applications/ARM/arm-none-eabi/include/c++/10.3.1/bits/std_function.h **** 	}
 205:/Applications/ARM/arm-none-eabi/include/c++/10.3.1/bits/std_function.h **** 
ARM GAS  /var/folders/fp/915b6f8s6gl4dt9rfrq38g500000gn/T//cchHy16I.s 			page 26


 206:/Applications/ARM/arm-none-eabi/include/c++/10.3.1/bits/std_function.h **** 	static void
 207:/Applications/ARM/arm-none-eabi/include/c++/10.3.1/bits/std_function.h **** 	_M_init_functor(_Any_data& __functor, _Functor&& __f)
 208:/Applications/ARM/arm-none-eabi/include/c++/10.3.1/bits/std_function.h **** 	{ _M_init_functor(__functor, std::move(__f), _Local_storage()); }
 209:/Applications/ARM/arm-none-eabi/include/c++/10.3.1/bits/std_function.h **** 
 210:/Applications/ARM/arm-none-eabi/include/c++/10.3.1/bits/std_function.h **** 	template<typename _Signature>
 211:/Applications/ARM/arm-none-eabi/include/c++/10.3.1/bits/std_function.h **** 	  static bool
 212:/Applications/ARM/arm-none-eabi/include/c++/10.3.1/bits/std_function.h **** 	  _M_not_empty_function(const function<_Signature>& __f)
 213:/Applications/ARM/arm-none-eabi/include/c++/10.3.1/bits/std_function.h **** 	  { return static_cast<bool>(__f); }
 214:/Applications/ARM/arm-none-eabi/include/c++/10.3.1/bits/std_function.h **** 
 215:/Applications/ARM/arm-none-eabi/include/c++/10.3.1/bits/std_function.h **** 	template<typename _Tp>
 216:/Applications/ARM/arm-none-eabi/include/c++/10.3.1/bits/std_function.h **** 	  static bool
 217:/Applications/ARM/arm-none-eabi/include/c++/10.3.1/bits/std_function.h **** 	  _M_not_empty_function(_Tp* __fp)
 218:/Applications/ARM/arm-none-eabi/include/c++/10.3.1/bits/std_function.h **** 	  { return __fp != nullptr; }
 219:/Applications/ARM/arm-none-eabi/include/c++/10.3.1/bits/std_function.h **** 
 220:/Applications/ARM/arm-none-eabi/include/c++/10.3.1/bits/std_function.h **** 	template<typename _Class, typename _Tp>
 221:/Applications/ARM/arm-none-eabi/include/c++/10.3.1/bits/std_function.h **** 	  static bool
 222:/Applications/ARM/arm-none-eabi/include/c++/10.3.1/bits/std_function.h **** 	  _M_not_empty_function(_Tp _Class::* __mp)
 223:/Applications/ARM/arm-none-eabi/include/c++/10.3.1/bits/std_function.h **** 	  { return __mp != nullptr; }
 224:/Applications/ARM/arm-none-eabi/include/c++/10.3.1/bits/std_function.h **** 
 225:/Applications/ARM/arm-none-eabi/include/c++/10.3.1/bits/std_function.h **** 	template<typename _Tp>
 226:/Applications/ARM/arm-none-eabi/include/c++/10.3.1/bits/std_function.h **** 	  static bool
 227:/Applications/ARM/arm-none-eabi/include/c++/10.3.1/bits/std_function.h **** 	  _M_not_empty_function(const _Tp&)
 228:/Applications/ARM/arm-none-eabi/include/c++/10.3.1/bits/std_function.h **** 	  { return true; }
 229:/Applications/ARM/arm-none-eabi/include/c++/10.3.1/bits/std_function.h **** 
 230:/Applications/ARM/arm-none-eabi/include/c++/10.3.1/bits/std_function.h ****       private:
 231:/Applications/ARM/arm-none-eabi/include/c++/10.3.1/bits/std_function.h **** 	static void
 232:/Applications/ARM/arm-none-eabi/include/c++/10.3.1/bits/std_function.h **** 	_M_init_functor(_Any_data& __functor, _Functor&& __f, true_type)
 233:/Applications/ARM/arm-none-eabi/include/c++/10.3.1/bits/std_function.h **** 	{ ::new (__functor._M_access()) _Functor(std::move(__f)); }
 234:/Applications/ARM/arm-none-eabi/include/c++/10.3.1/bits/std_function.h **** 
 235:/Applications/ARM/arm-none-eabi/include/c++/10.3.1/bits/std_function.h **** 	static void
 236:/Applications/ARM/arm-none-eabi/include/c++/10.3.1/bits/std_function.h **** 	_M_init_functor(_Any_data& __functor, _Functor&& __f, false_type)
 237:/Applications/ARM/arm-none-eabi/include/c++/10.3.1/bits/std_function.h **** 	{ __functor._M_access<_Functor*>() = new _Functor(std::move(__f)); }
 238:/Applications/ARM/arm-none-eabi/include/c++/10.3.1/bits/std_function.h ****       };
 239:/Applications/ARM/arm-none-eabi/include/c++/10.3.1/bits/std_function.h **** 
 240:/Applications/ARM/arm-none-eabi/include/c++/10.3.1/bits/std_function.h ****     _Function_base() : _M_manager(nullptr) { }
 241:/Applications/ARM/arm-none-eabi/include/c++/10.3.1/bits/std_function.h **** 
 242:/Applications/ARM/arm-none-eabi/include/c++/10.3.1/bits/std_function.h ****     ~_Function_base()
 243:/Applications/ARM/arm-none-eabi/include/c++/10.3.1/bits/std_function.h ****     {
 244:/Applications/ARM/arm-none-eabi/include/c++/10.3.1/bits/std_function.h ****       if (_M_manager)
 245:/Applications/ARM/arm-none-eabi/include/c++/10.3.1/bits/std_function.h **** 	_M_manager(_M_functor, _M_functor, __destroy_functor);
 288              		.loc 11 245 2 is_stmt 1 discriminator 3 view .LVU48
 244:/Applications/ARM/arm-none-eabi/include/c++/10.3.1/bits/std_function.h **** 	_M_manager(_M_functor, _M_functor, __destroy_functor);
 289              		.loc 11 244 11 is_stmt 0 discriminator 3 view .LVU49
 290 0008 54F8083C 		ldr	r3, [r4, #-8]
 291              		.loc 11 245 12 discriminator 3 view .LVU50
 292 000c 0322     		movs	r2, #3
 293              	.LBE3262:
 294              	.LBE3261:
 295              	.LBE3260:
 296              		.loc 10 275 5 discriminator 3 view .LVU51
 297 000e 103C     		subs	r4, r4, #16
 298              	.LVL11:
 299              	.LBB3265:
 300              	.LBI3260:
 246:/Applications/ARM/arm-none-eabi/include/c++/10.3.1/bits/std_function.h ****     }
 247:/Applications/ARM/arm-none-eabi/include/c++/10.3.1/bits/std_function.h **** 
 248:/Applications/ARM/arm-none-eabi/include/c++/10.3.1/bits/std_function.h ****     bool _M_empty() const { return !_M_manager; }
ARM GAS  /var/folders/fp/915b6f8s6gl4dt9rfrq38g500000gn/T//cchHy16I.s 			page 27


 249:/Applications/ARM/arm-none-eabi/include/c++/10.3.1/bits/std_function.h **** 
 250:/Applications/ARM/arm-none-eabi/include/c++/10.3.1/bits/std_function.h ****     typedef bool (*_Manager_type)(_Any_data&, const _Any_data&,
 251:/Applications/ARM/arm-none-eabi/include/c++/10.3.1/bits/std_function.h **** 				  _Manager_operation);
 252:/Applications/ARM/arm-none-eabi/include/c++/10.3.1/bits/std_function.h **** 
 253:/Applications/ARM/arm-none-eabi/include/c++/10.3.1/bits/std_function.h ****     _Any_data     _M_functor;
 254:/Applications/ARM/arm-none-eabi/include/c++/10.3.1/bits/std_function.h ****     _Manager_type _M_manager;
 255:/Applications/ARM/arm-none-eabi/include/c++/10.3.1/bits/std_function.h ****   };
 256:/Applications/ARM/arm-none-eabi/include/c++/10.3.1/bits/std_function.h **** 
 257:/Applications/ARM/arm-none-eabi/include/c++/10.3.1/bits/std_function.h ****   template<typename _Signature, typename _Functor>
 258:/Applications/ARM/arm-none-eabi/include/c++/10.3.1/bits/std_function.h ****     class _Function_handler;
 259:/Applications/ARM/arm-none-eabi/include/c++/10.3.1/bits/std_function.h **** 
 260:/Applications/ARM/arm-none-eabi/include/c++/10.3.1/bits/std_function.h ****   template<typename _Res, typename _Functor, typename... _ArgTypes>
 261:/Applications/ARM/arm-none-eabi/include/c++/10.3.1/bits/std_function.h ****     class _Function_handler<_Res(_ArgTypes...), _Functor>
 262:/Applications/ARM/arm-none-eabi/include/c++/10.3.1/bits/std_function.h ****     : public _Function_base::_Base_manager<_Functor>
 263:/Applications/ARM/arm-none-eabi/include/c++/10.3.1/bits/std_function.h ****     {
 264:/Applications/ARM/arm-none-eabi/include/c++/10.3.1/bits/std_function.h ****       typedef _Function_base::_Base_manager<_Functor> _Base;
 265:/Applications/ARM/arm-none-eabi/include/c++/10.3.1/bits/std_function.h **** 
 266:/Applications/ARM/arm-none-eabi/include/c++/10.3.1/bits/std_function.h ****     public:
 267:/Applications/ARM/arm-none-eabi/include/c++/10.3.1/bits/std_function.h ****       static bool
 268:/Applications/ARM/arm-none-eabi/include/c++/10.3.1/bits/std_function.h ****       _M_manager(_Any_data& __dest, const _Any_data& __source,
 269:/Applications/ARM/arm-none-eabi/include/c++/10.3.1/bits/std_function.h **** 		 _Manager_operation __op)
 270:/Applications/ARM/arm-none-eabi/include/c++/10.3.1/bits/std_function.h ****       {
 271:/Applications/ARM/arm-none-eabi/include/c++/10.3.1/bits/std_function.h **** 	switch (__op)
 272:/Applications/ARM/arm-none-eabi/include/c++/10.3.1/bits/std_function.h **** 	  {
 273:/Applications/ARM/arm-none-eabi/include/c++/10.3.1/bits/std_function.h **** #if __cpp_rtti
 274:/Applications/ARM/arm-none-eabi/include/c++/10.3.1/bits/std_function.h **** 	  case __get_type_info:
 275:/Applications/ARM/arm-none-eabi/include/c++/10.3.1/bits/std_function.h **** 	    __dest._M_access<const type_info*>() = &typeid(_Functor);
 276:/Applications/ARM/arm-none-eabi/include/c++/10.3.1/bits/std_function.h **** 	    break;
 277:/Applications/ARM/arm-none-eabi/include/c++/10.3.1/bits/std_function.h **** #endif
 278:/Applications/ARM/arm-none-eabi/include/c++/10.3.1/bits/std_function.h **** 	  case __get_functor_ptr:
 279:/Applications/ARM/arm-none-eabi/include/c++/10.3.1/bits/std_function.h **** 	    __dest._M_access<_Functor*>() = _Base::_M_get_pointer(__source);
 280:/Applications/ARM/arm-none-eabi/include/c++/10.3.1/bits/std_function.h **** 	    break;
 281:/Applications/ARM/arm-none-eabi/include/c++/10.3.1/bits/std_function.h **** 
 282:/Applications/ARM/arm-none-eabi/include/c++/10.3.1/bits/std_function.h **** 	  default:
 283:/Applications/ARM/arm-none-eabi/include/c++/10.3.1/bits/std_function.h **** 	    _Base::_M_manager(__dest, __source, __op);
 284:/Applications/ARM/arm-none-eabi/include/c++/10.3.1/bits/std_function.h **** 	  }
 285:/Applications/ARM/arm-none-eabi/include/c++/10.3.1/bits/std_function.h **** 	return false;
 286:/Applications/ARM/arm-none-eabi/include/c++/10.3.1/bits/std_function.h ****       }
 287:/Applications/ARM/arm-none-eabi/include/c++/10.3.1/bits/std_function.h **** 
 288:/Applications/ARM/arm-none-eabi/include/c++/10.3.1/bits/std_function.h ****       static _Res
 289:/Applications/ARM/arm-none-eabi/include/c++/10.3.1/bits/std_function.h ****       _M_invoke(const _Any_data& __functor, _ArgTypes&&... __args)
 290:/Applications/ARM/arm-none-eabi/include/c++/10.3.1/bits/std_function.h ****       {
 291:/Applications/ARM/arm-none-eabi/include/c++/10.3.1/bits/std_function.h **** 	return std::__invoke_r<_Res>(*_Base::_M_get_pointer(__functor),
 292:/Applications/ARM/arm-none-eabi/include/c++/10.3.1/bits/std_function.h **** 				     std::forward<_ArgTypes>(__args)...);
 293:/Applications/ARM/arm-none-eabi/include/c++/10.3.1/bits/std_function.h ****       }
 294:/Applications/ARM/arm-none-eabi/include/c++/10.3.1/bits/std_function.h ****     };
 295:/Applications/ARM/arm-none-eabi/include/c++/10.3.1/bits/std_function.h **** 
 296:/Applications/ARM/arm-none-eabi/include/c++/10.3.1/bits/std_function.h ****   /**
 297:/Applications/ARM/arm-none-eabi/include/c++/10.3.1/bits/std_function.h ****    *  @brief Primary class template for std::function.
 298:/Applications/ARM/arm-none-eabi/include/c++/10.3.1/bits/std_function.h ****    *  @ingroup functors
 299:/Applications/ARM/arm-none-eabi/include/c++/10.3.1/bits/std_function.h ****    *
 300:/Applications/ARM/arm-none-eabi/include/c++/10.3.1/bits/std_function.h ****    *  Polymorphic function wrapper.
 301:/Applications/ARM/arm-none-eabi/include/c++/10.3.1/bits/std_function.h ****    */
 302:/Applications/ARM/arm-none-eabi/include/c++/10.3.1/bits/std_function.h ****   template<typename _Res, typename... _ArgTypes>
 303:/Applications/ARM/arm-none-eabi/include/c++/10.3.1/bits/std_function.h ****     class function<_Res(_ArgTypes...)>
 301              		.loc 11 303 11 is_stmt 1 discriminator 3 view .LVU52
 302              	.LBB3264:
ARM GAS  /var/folders/fp/915b6f8s6gl4dt9rfrq38g500000gn/T//cchHy16I.s 			page 28


 303              	.LBI3261:
 242:/Applications/ARM/arm-none-eabi/include/c++/10.3.1/bits/std_function.h ****     {
 304              		.loc 11 242 5 discriminator 3 view .LVU53
 305              	.LBB3263:
 244:/Applications/ARM/arm-none-eabi/include/c++/10.3.1/bits/std_function.h **** 	_M_manager(_M_functor, _M_functor, __destroy_functor);
 306              		.loc 11 244 7 discriminator 3 view .LVU54
 307 0010 13B1     		cbz	r3, .L15
 245:/Applications/ARM/arm-none-eabi/include/c++/10.3.1/bits/std_function.h ****     }
 308              		.loc 11 245 12 is_stmt 0 view .LVU55
 309 0012 2146     		mov	r1, r4
 310 0014 2046     		mov	r0, r4
 311 0016 9847     		blx	r3
 312              	.LVL12:
 313              	.L15:
 245:/Applications/ARM/arm-none-eabi/include/c++/10.3.1/bits/std_function.h ****     }
 314              		.loc 11 245 12 view .LVU56
 315              	.LBE3263:
 316              	.LBE3264:
 317              	.LBE3265:
 318              		.loc 10 275 5 view .LVU57
 319 0018 AC42     		cmp	r4, r5
 320 001a F5D1     		bne	.L16
 321 001c 38BD     		pop	{r3, r4, r5, pc}
 322              	.L23:
 323 001e 00BF     		.align	2
 324              	.L22:
 325 0020 30000000 		.word	.LANCHOR0+48
 326              		.cfi_endproc
 327              	.LFE5889:
 329              		.section	.text._ZNSt17_Function_handlerIFvfEZ9apply_lfovEUlfE_E9_M_invokeERKSt9_Any_dataOf,"ax",%p
 330              		.align	1
 331              		.p2align 2,,3
 332              		.syntax unified
 333              		.thumb
 334              		.thumb_func
 335              		.fpu fpv5-d16
 337              	_ZNSt17_Function_handlerIFvfEZ9apply_lfovEUlfE_E9_M_invokeERKSt9_Any_dataOf:
 338              	.LVL13:
 339              	.LFB6629:
 289:/Applications/ARM/arm-none-eabi/include/c++/10.3.1/bits/std_function.h ****       {
 340              		.loc 11 289 7 is_stmt 1 view -0
 341              		.cfi_startproc
 342              		@ args = 0, pretend = 0, frame = 0
 343              		@ frame_needed = 0, uses_anonymous_args = 0
 344              		@ link register save eliminated.
  88:/Applications/ARM/arm-none-eabi/include/c++/10.3.1/bits/std_function.h **** 
 345              		.loc 11 88 37 view .LVU59
 346              	.LBB3266:
 347              	.LBI3266:
 348              		.file 12 "/Applications/ARM/arm-none-eabi/include/c++/10.3.1/bits/invoke.h"
   1:/Applications/ARM/arm-none-eabi/include/c++/10.3.1/bits/invoke.h **** // Implementation of INVOKE -*- C++ -*-
   2:/Applications/ARM/arm-none-eabi/include/c++/10.3.1/bits/invoke.h **** 
   3:/Applications/ARM/arm-none-eabi/include/c++/10.3.1/bits/invoke.h **** // Copyright (C) 2016-2020 Free Software Foundation, Inc.
   4:/Applications/ARM/arm-none-eabi/include/c++/10.3.1/bits/invoke.h **** //
   5:/Applications/ARM/arm-none-eabi/include/c++/10.3.1/bits/invoke.h **** // This file is part of the GNU ISO C++ Library.  This library is free
   6:/Applications/ARM/arm-none-eabi/include/c++/10.3.1/bits/invoke.h **** // software; you can redistribute it and/or modify it under the
   7:/Applications/ARM/arm-none-eabi/include/c++/10.3.1/bits/invoke.h **** // terms of the GNU General Public License as published by the
ARM GAS  /var/folders/fp/915b6f8s6gl4dt9rfrq38g500000gn/T//cchHy16I.s 			page 29


   8:/Applications/ARM/arm-none-eabi/include/c++/10.3.1/bits/invoke.h **** // Free Software Foundation; either version 3, or (at your option)
   9:/Applications/ARM/arm-none-eabi/include/c++/10.3.1/bits/invoke.h **** // any later version.
  10:/Applications/ARM/arm-none-eabi/include/c++/10.3.1/bits/invoke.h **** 
  11:/Applications/ARM/arm-none-eabi/include/c++/10.3.1/bits/invoke.h **** // This library is distributed in the hope that it will be useful,
  12:/Applications/ARM/arm-none-eabi/include/c++/10.3.1/bits/invoke.h **** // but WITHOUT ANY WARRANTY; without even the implied warranty of
  13:/Applications/ARM/arm-none-eabi/include/c++/10.3.1/bits/invoke.h **** // MERCHANTABILITY or FITNESS FOR A PARTICULAR PURPOSE.  See the
  14:/Applications/ARM/arm-none-eabi/include/c++/10.3.1/bits/invoke.h **** // GNU General Public License for more details.
  15:/Applications/ARM/arm-none-eabi/include/c++/10.3.1/bits/invoke.h **** 
  16:/Applications/ARM/arm-none-eabi/include/c++/10.3.1/bits/invoke.h **** // Under Section 7 of GPL version 3, you are granted additional
  17:/Applications/ARM/arm-none-eabi/include/c++/10.3.1/bits/invoke.h **** // permissions described in the GCC Runtime Library Exception, version
  18:/Applications/ARM/arm-none-eabi/include/c++/10.3.1/bits/invoke.h **** // 3.1, as published by the Free Software Foundation.
  19:/Applications/ARM/arm-none-eabi/include/c++/10.3.1/bits/invoke.h **** 
  20:/Applications/ARM/arm-none-eabi/include/c++/10.3.1/bits/invoke.h **** // You should have received a copy of the GNU General Public License and
  21:/Applications/ARM/arm-none-eabi/include/c++/10.3.1/bits/invoke.h **** // a copy of the GCC Runtime Library Exception along with this program;
  22:/Applications/ARM/arm-none-eabi/include/c++/10.3.1/bits/invoke.h **** // see the files COPYING3 and COPYING.RUNTIME respectively.  If not, see
  23:/Applications/ARM/arm-none-eabi/include/c++/10.3.1/bits/invoke.h **** // <http://www.gnu.org/licenses/>.
  24:/Applications/ARM/arm-none-eabi/include/c++/10.3.1/bits/invoke.h **** 
  25:/Applications/ARM/arm-none-eabi/include/c++/10.3.1/bits/invoke.h **** /** @file include/bits/invoke.h
  26:/Applications/ARM/arm-none-eabi/include/c++/10.3.1/bits/invoke.h ****  *  This is an internal header file, included by other library headers.
  27:/Applications/ARM/arm-none-eabi/include/c++/10.3.1/bits/invoke.h ****  *  Do not attempt to use it directly. @headername{functional}
  28:/Applications/ARM/arm-none-eabi/include/c++/10.3.1/bits/invoke.h ****  */
  29:/Applications/ARM/arm-none-eabi/include/c++/10.3.1/bits/invoke.h **** 
  30:/Applications/ARM/arm-none-eabi/include/c++/10.3.1/bits/invoke.h **** #ifndef _GLIBCXX_INVOKE_H
  31:/Applications/ARM/arm-none-eabi/include/c++/10.3.1/bits/invoke.h **** #define _GLIBCXX_INVOKE_H 1
  32:/Applications/ARM/arm-none-eabi/include/c++/10.3.1/bits/invoke.h **** 
  33:/Applications/ARM/arm-none-eabi/include/c++/10.3.1/bits/invoke.h **** #pragma GCC system_header
  34:/Applications/ARM/arm-none-eabi/include/c++/10.3.1/bits/invoke.h **** 
  35:/Applications/ARM/arm-none-eabi/include/c++/10.3.1/bits/invoke.h **** #if __cplusplus < 201103L
  36:/Applications/ARM/arm-none-eabi/include/c++/10.3.1/bits/invoke.h **** # include <bits/c++0x_warning.h>
  37:/Applications/ARM/arm-none-eabi/include/c++/10.3.1/bits/invoke.h **** #else
  38:/Applications/ARM/arm-none-eabi/include/c++/10.3.1/bits/invoke.h **** 
  39:/Applications/ARM/arm-none-eabi/include/c++/10.3.1/bits/invoke.h **** #include <type_traits>
  40:/Applications/ARM/arm-none-eabi/include/c++/10.3.1/bits/invoke.h **** 
  41:/Applications/ARM/arm-none-eabi/include/c++/10.3.1/bits/invoke.h **** namespace std _GLIBCXX_VISIBILITY(default)
  42:/Applications/ARM/arm-none-eabi/include/c++/10.3.1/bits/invoke.h **** {
  43:/Applications/ARM/arm-none-eabi/include/c++/10.3.1/bits/invoke.h **** _GLIBCXX_BEGIN_NAMESPACE_VERSION
  44:/Applications/ARM/arm-none-eabi/include/c++/10.3.1/bits/invoke.h **** 
  45:/Applications/ARM/arm-none-eabi/include/c++/10.3.1/bits/invoke.h ****   /**
  46:/Applications/ARM/arm-none-eabi/include/c++/10.3.1/bits/invoke.h ****    *  @addtogroup utilities
  47:/Applications/ARM/arm-none-eabi/include/c++/10.3.1/bits/invoke.h ****    *  @{
  48:/Applications/ARM/arm-none-eabi/include/c++/10.3.1/bits/invoke.h ****    */
  49:/Applications/ARM/arm-none-eabi/include/c++/10.3.1/bits/invoke.h **** 
  50:/Applications/ARM/arm-none-eabi/include/c++/10.3.1/bits/invoke.h ****   // Used by __invoke_impl instead of std::forward<_Tp> so that a
  51:/Applications/ARM/arm-none-eabi/include/c++/10.3.1/bits/invoke.h ****   // reference_wrapper is converted to an lvalue-reference.
  52:/Applications/ARM/arm-none-eabi/include/c++/10.3.1/bits/invoke.h ****   template<typename _Tp, typename _Up = typename __inv_unwrap<_Tp>::type>
  53:/Applications/ARM/arm-none-eabi/include/c++/10.3.1/bits/invoke.h ****     constexpr _Up&&
  54:/Applications/ARM/arm-none-eabi/include/c++/10.3.1/bits/invoke.h ****     __invfwd(typename remove_reference<_Tp>::type& __t) noexcept
  55:/Applications/ARM/arm-none-eabi/include/c++/10.3.1/bits/invoke.h ****     { return static_cast<_Up&&>(__t); }
  56:/Applications/ARM/arm-none-eabi/include/c++/10.3.1/bits/invoke.h **** 
  57:/Applications/ARM/arm-none-eabi/include/c++/10.3.1/bits/invoke.h ****   template<typename _Res, typename _Fn, typename... _Args>
  58:/Applications/ARM/arm-none-eabi/include/c++/10.3.1/bits/invoke.h ****     constexpr _Res
  59:/Applications/ARM/arm-none-eabi/include/c++/10.3.1/bits/invoke.h ****     __invoke_impl(__invoke_other, _Fn&& __f, _Args&&... __args)
  60:/Applications/ARM/arm-none-eabi/include/c++/10.3.1/bits/invoke.h ****     { return std::forward<_Fn>(__f)(std::forward<_Args>(__args)...); }
  61:/Applications/ARM/arm-none-eabi/include/c++/10.3.1/bits/invoke.h **** 
  62:/Applications/ARM/arm-none-eabi/include/c++/10.3.1/bits/invoke.h ****   template<typename _Res, typename _MemFun, typename _Tp, typename... _Args>
  63:/Applications/ARM/arm-none-eabi/include/c++/10.3.1/bits/invoke.h ****     constexpr _Res
  64:/Applications/ARM/arm-none-eabi/include/c++/10.3.1/bits/invoke.h ****     __invoke_impl(__invoke_memfun_ref, _MemFun&& __f, _Tp&& __t,
ARM GAS  /var/folders/fp/915b6f8s6gl4dt9rfrq38g500000gn/T//cchHy16I.s 			page 30


  65:/Applications/ARM/arm-none-eabi/include/c++/10.3.1/bits/invoke.h **** 		  _Args&&... __args)
  66:/Applications/ARM/arm-none-eabi/include/c++/10.3.1/bits/invoke.h ****     { return (__invfwd<_Tp>(__t).*__f)(std::forward<_Args>(__args)...); }
  67:/Applications/ARM/arm-none-eabi/include/c++/10.3.1/bits/invoke.h **** 
  68:/Applications/ARM/arm-none-eabi/include/c++/10.3.1/bits/invoke.h ****   template<typename _Res, typename _MemFun, typename _Tp, typename... _Args>
  69:/Applications/ARM/arm-none-eabi/include/c++/10.3.1/bits/invoke.h ****     constexpr _Res
  70:/Applications/ARM/arm-none-eabi/include/c++/10.3.1/bits/invoke.h ****     __invoke_impl(__invoke_memfun_deref, _MemFun&& __f, _Tp&& __t,
  71:/Applications/ARM/arm-none-eabi/include/c++/10.3.1/bits/invoke.h **** 		  _Args&&... __args)
  72:/Applications/ARM/arm-none-eabi/include/c++/10.3.1/bits/invoke.h ****     {
  73:/Applications/ARM/arm-none-eabi/include/c++/10.3.1/bits/invoke.h ****       return ((*std::forward<_Tp>(__t)).*__f)(std::forward<_Args>(__args)...);
  74:/Applications/ARM/arm-none-eabi/include/c++/10.3.1/bits/invoke.h ****     }
  75:/Applications/ARM/arm-none-eabi/include/c++/10.3.1/bits/invoke.h **** 
  76:/Applications/ARM/arm-none-eabi/include/c++/10.3.1/bits/invoke.h ****   template<typename _Res, typename _MemPtr, typename _Tp>
  77:/Applications/ARM/arm-none-eabi/include/c++/10.3.1/bits/invoke.h ****     constexpr _Res
  78:/Applications/ARM/arm-none-eabi/include/c++/10.3.1/bits/invoke.h ****     __invoke_impl(__invoke_memobj_ref, _MemPtr&& __f, _Tp&& __t)
  79:/Applications/ARM/arm-none-eabi/include/c++/10.3.1/bits/invoke.h ****     { return __invfwd<_Tp>(__t).*__f; }
  80:/Applications/ARM/arm-none-eabi/include/c++/10.3.1/bits/invoke.h **** 
  81:/Applications/ARM/arm-none-eabi/include/c++/10.3.1/bits/invoke.h ****   template<typename _Res, typename _MemPtr, typename _Tp>
  82:/Applications/ARM/arm-none-eabi/include/c++/10.3.1/bits/invoke.h ****     constexpr _Res
  83:/Applications/ARM/arm-none-eabi/include/c++/10.3.1/bits/invoke.h ****     __invoke_impl(__invoke_memobj_deref, _MemPtr&& __f, _Tp&& __t)
  84:/Applications/ARM/arm-none-eabi/include/c++/10.3.1/bits/invoke.h ****     { return (*std::forward<_Tp>(__t)).*__f; }
  85:/Applications/ARM/arm-none-eabi/include/c++/10.3.1/bits/invoke.h **** 
  86:/Applications/ARM/arm-none-eabi/include/c++/10.3.1/bits/invoke.h ****   /// Invoke a callable object.
  87:/Applications/ARM/arm-none-eabi/include/c++/10.3.1/bits/invoke.h ****   template<typename _Callable, typename... _Args>
  88:/Applications/ARM/arm-none-eabi/include/c++/10.3.1/bits/invoke.h ****     constexpr typename __invoke_result<_Callable, _Args...>::type
  89:/Applications/ARM/arm-none-eabi/include/c++/10.3.1/bits/invoke.h ****     __invoke(_Callable&& __fn, _Args&&... __args)
  90:/Applications/ARM/arm-none-eabi/include/c++/10.3.1/bits/invoke.h ****     noexcept(__is_nothrow_invocable<_Callable, _Args...>::value)
  91:/Applications/ARM/arm-none-eabi/include/c++/10.3.1/bits/invoke.h ****     {
  92:/Applications/ARM/arm-none-eabi/include/c++/10.3.1/bits/invoke.h ****       using __result = __invoke_result<_Callable, _Args...>;
  93:/Applications/ARM/arm-none-eabi/include/c++/10.3.1/bits/invoke.h ****       using __type = typename __result::type;
  94:/Applications/ARM/arm-none-eabi/include/c++/10.3.1/bits/invoke.h ****       using __tag = typename __result::__invoke_type;
  95:/Applications/ARM/arm-none-eabi/include/c++/10.3.1/bits/invoke.h ****       return std::__invoke_impl<__type>(__tag{}, std::forward<_Callable>(__fn),
  96:/Applications/ARM/arm-none-eabi/include/c++/10.3.1/bits/invoke.h **** 					std::forward<_Args>(__args)...);
  97:/Applications/ARM/arm-none-eabi/include/c++/10.3.1/bits/invoke.h ****     }
  98:/Applications/ARM/arm-none-eabi/include/c++/10.3.1/bits/invoke.h **** 
  99:/Applications/ARM/arm-none-eabi/include/c++/10.3.1/bits/invoke.h **** #if __cplusplus >= 201703L
 100:/Applications/ARM/arm-none-eabi/include/c++/10.3.1/bits/invoke.h ****   // INVOKE<R>: Invoke a callable object and convert the result to R.
 101:/Applications/ARM/arm-none-eabi/include/c++/10.3.1/bits/invoke.h ****   template<typename _Res, typename _Callable, typename... _Args>
 102:/Applications/ARM/arm-none-eabi/include/c++/10.3.1/bits/invoke.h ****     constexpr enable_if_t<is_invocable_r_v<_Res, _Callable, _Args...>, _Res>
 103:/Applications/ARM/arm-none-eabi/include/c++/10.3.1/bits/invoke.h ****     __invoke_r(_Callable&& __fn, _Args&&... __args)
 349              		.loc 12 103 5 view .LVU60
 350              	.LBB3267:
 351              	.LBB3268:
 352              	.LBI3268:
  59:/Applications/ARM/arm-none-eabi/include/c++/10.3.1/bits/invoke.h ****     { return std::forward<_Fn>(__f)(std::forward<_Args>(__args)...); }
 353              		.loc 12 59 5 view .LVU61
 354              	.LBB3269:
 355              	.LBB3270:
 356              	.LBI3270:
 265:src/main_2.cpp ****             delay_mod = mod * 5000.0f;
 357              		.loc 10 265 9 view .LVU62
 358              	.LBB3271:
 266:src/main_2.cpp ****     },
 359              		.loc 10 266 13 view .LVU63
 266:src/main_2.cpp ****     },
 360              		.loc 10 266 29 is_stmt 0 view .LVU64
 361 0000 D1ED007A 		vldr.32	s15, [r1]
 362 0004 9FED037A 		vldr.32	s14, .L25
ARM GAS  /var/folders/fp/915b6f8s6gl4dt9rfrq38g500000gn/T//cchHy16I.s 			page 31


 266:src/main_2.cpp ****     },
 363              		.loc 10 266 23 view .LVU65
 364 0008 034B     		ldr	r3, .L25+4
 266:src/main_2.cpp ****     },
 365              		.loc 10 266 29 view .LVU66
 366 000a 67EE877A 		vmul.f32	s15, s15, s14
 266:src/main_2.cpp ****     },
 367              		.loc 10 266 23 view .LVU67
 368 000e C3ED007A 		vstr.32	s15, [r3]
 369              	.LVL14:
 266:src/main_2.cpp ****     },
 370              		.loc 10 266 23 view .LVU68
 371              	.LBE3271:
 372              	.LBE3270:
 373              	.LBE3269:
 374              	.LBE3268:
 375              	.LBE3267:
 376              	.LBE3266:
 293:/Applications/ARM/arm-none-eabi/include/c++/10.3.1/bits/std_function.h ****     };
 377              		.loc 11 293 7 view .LVU69
 378 0012 7047     		bx	lr
 379              	.L26:
 380              		.align	2
 381              	.L25:
 382 0014 00409C45 		.word	1167867904
 383 0018 00000000 		.word	.LANCHOR1
 384              		.cfi_endproc
 385              	.LFE6629:
 387              		.section	.text._ZNSt17_Function_handlerIFvfEZ9apply_lfovEUlfE0_E9_M_invokeERKSt9_Any_dataOf,"ax",%
 388              		.align	1
 389              		.p2align 2,,3
 390              		.syntax unified
 391              		.thumb
 392              		.thumb_func
 393              		.fpu fpv5-d16
 395              	_ZNSt17_Function_handlerIFvfEZ9apply_lfovEUlfE0_E9_M_invokeERKSt9_Any_dataOf:
 396              	.LVL15:
 397              	.LFB6635:
 289:/Applications/ARM/arm-none-eabi/include/c++/10.3.1/bits/std_function.h ****       {
 398              		.loc 11 289 7 is_stmt 1 view -0
 399              		.cfi_startproc
 400              		@ args = 0, pretend = 0, frame = 0
 401              		@ frame_needed = 0, uses_anonymous_args = 0
 402              		@ link register save eliminated.
  88:/Applications/ARM/arm-none-eabi/include/c++/10.3.1/bits/std_function.h **** 
 403              		.loc 11 88 37 view .LVU71
 404              	.LBB3272:
 405              	.LBI3272:
 406              		.loc 12 103 5 view .LVU72
 407              	.LBB3273:
 408              	.LBB3274:
 409              	.LBI3274:
  59:/Applications/ARM/arm-none-eabi/include/c++/10.3.1/bits/invoke.h ****     { return std::forward<_Fn>(__f)(std::forward<_Args>(__args)...); }
 410              		.loc 12 59 5 view .LVU73
 411              	.LBB3275:
 412              	.LBB3276:
 413              	.LBI3276:
ARM GAS  /var/folders/fp/915b6f8s6gl4dt9rfrq38g500000gn/T//cchHy16I.s 			page 32


 268:src/main_2.cpp ****             lpf_mod = mod * 8000.0f;
 414              		.loc 10 268 9 view .LVU74
 415              	.LBB3277:
 269:src/main_2.cpp ****             
 416              		.loc 10 269 13 view .LVU75
 269:src/main_2.cpp ****             
 417              		.loc 10 269 27 is_stmt 0 view .LVU76
 418 0000 D1ED007A 		vldr.32	s15, [r1]
 419 0004 9FED037A 		vldr.32	s14, .L28
 269:src/main_2.cpp ****             
 420              		.loc 10 269 21 view .LVU77
 421 0008 034B     		ldr	r3, .L28+4
 269:src/main_2.cpp ****             
 422              		.loc 10 269 27 view .LVU78
 423 000a 67EE877A 		vmul.f32	s15, s15, s14
 269:src/main_2.cpp ****             
 424              		.loc 10 269 21 view .LVU79
 425 000e C3ED007A 		vstr.32	s15, [r3]
 426              	.LVL16:
 269:src/main_2.cpp ****             
 427              		.loc 10 269 21 view .LVU80
 428              	.LBE3277:
 429              	.LBE3276:
 430              	.LBE3275:
 431              	.LBE3274:
 432              	.LBE3273:
 433              	.LBE3272:
 293:/Applications/ARM/arm-none-eabi/include/c++/10.3.1/bits/std_function.h ****     };
 434              		.loc 11 293 7 view .LVU81
 435 0012 7047     		bx	lr
 436              	.L29:
 437              		.align	2
 438              	.L28:
 439 0014 0000FA45 		.word	1174011904
 440 0018 00000000 		.word	.LANCHOR2
 441              		.cfi_endproc
 442              	.LFE6635:
 444              		.section	.text._ZNSt17_Function_handlerIFvfEZ9apply_lfovEUlfE1_E9_M_invokeERKSt9_Any_dataOf,"ax",%
 445              		.align	1
 446              		.p2align 2,,3
 447              		.syntax unified
 448              		.thumb
 449              		.thumb_func
 450              		.fpu fpv5-d16
 452              	_ZNSt17_Function_handlerIFvfEZ9apply_lfovEUlfE1_E9_M_invokeERKSt9_Any_dataOf:
 453              	.LVL17:
 454              	.LFB6641:
 289:/Applications/ARM/arm-none-eabi/include/c++/10.3.1/bits/std_function.h ****       {
 455              		.loc 11 289 7 is_stmt 1 view -0
 456              		.cfi_startproc
 457              		@ args = 0, pretend = 0, frame = 0
 458              		@ frame_needed = 0, uses_anonymous_args = 0
 459              		@ link register save eliminated.
  88:/Applications/ARM/arm-none-eabi/include/c++/10.3.1/bits/std_function.h **** 
 460              		.loc 11 88 37 view .LVU83
 461              	.LBB3278:
 462              	.LBI3278:
ARM GAS  /var/folders/fp/915b6f8s6gl4dt9rfrq38g500000gn/T//cchHy16I.s 			page 33


 463              		.loc 12 103 5 view .LVU84
 464              	.LBB3279:
 465              	.LBB3280:
 466              	.LBI3280:
  59:/Applications/ARM/arm-none-eabi/include/c++/10.3.1/bits/invoke.h ****     { return std::forward<_Fn>(__f)(std::forward<_Args>(__args)...); }
 467              		.loc 12 59 5 view .LVU85
 468              	.LBB3281:
 469              	.LBB3282:
 470              	.LBB3283:
 273:src/main_2.cpp ****     }
 471              		.loc 10 273 25 is_stmt 0 view .LVU86
 472 0000 014B     		ldr	r3, .L31
 473              	.LBE3283:
 474              	.LBE3282:
  60:/Applications/ARM/arm-none-eabi/include/c++/10.3.1/bits/invoke.h **** 
 475              		.loc 12 60 36 view .LVU87
 476 0002 0A68     		ldr	r2, [r1]	@ float
 477              	.LVL18:
 478              	.LBB3285:
 479              	.LBI3282:
 272:src/main_2.cpp ****             stretch_mod = mod;
 480              		.loc 10 272 9 is_stmt 1 view .LVU88
 481              	.LBB3284:
 273:src/main_2.cpp ****     }
 482              		.loc 10 273 13 view .LVU89
 273:src/main_2.cpp ****     }
 483              		.loc 10 273 25 is_stmt 0 view .LVU90
 484 0004 1A60     		str	r2, [r3]	@ float
 485              	.LVL19:
 273:src/main_2.cpp ****     }
 486              		.loc 10 273 25 view .LVU91
 487              	.LBE3284:
 488              	.LBE3285:
 489              	.LBE3281:
 490              	.LBE3280:
 491              	.LBE3279:
 492              	.LBE3278:
 293:/Applications/ARM/arm-none-eabi/include/c++/10.3.1/bits/std_function.h ****     };
 493              		.loc 11 293 7 view .LVU92
 494 0006 7047     		bx	lr
 495              	.L32:
 496              		.align	2
 497              	.L31:
 498 0008 00000000 		.word	.LANCHOR3
 499              		.cfi_endproc
 500              	.LFE6641:
 502              		.section	.text.__tcf_1,"ax",%progbits
 503              		.align	1
 504              		.p2align 2,,3
 505              		.syntax unified
 506              		.thumb
 507              		.thumb_func
 508              		.fpu fpv5-d16
 510              	__tcf_1:
 511              	.LFB7190:
 242:src/main_2.cpp **** 
 512              		.loc 10 242 15 is_stmt 1 view -0
ARM GAS  /var/folders/fp/915b6f8s6gl4dt9rfrq38g500000gn/T//cchHy16I.s 			page 34


 513              		.cfi_startproc
 514              		@ args = 0, pretend = 0, frame = 0
 515              		@ frame_needed = 0, uses_anonymous_args = 0
 516              		@ link register save eliminated.
 242:src/main_2.cpp **** 
 517              		.loc 10 242 15 is_stmt 0 view .LVU94
 518 0000 7047     		bx	lr
 519              		.cfi_endproc
 520              	.LFE7190:
 522 0002 00BF     		.section	.text._ZN5daisy11MidiHandlerINS_17MidiUartTransportEED2Ev,"axG",%progbits,_ZN5daisy11Midi
 523              		.align	1
 524              		.p2align 2,,3
 525              		.weak	_ZN5daisy11MidiHandlerINS_17MidiUartTransportEED2Ev
 526              		.syntax unified
 527              		.thumb
 528              		.thumb_func
 529              		.fpu fpv5-d16
 531              	_ZN5daisy11MidiHandlerINS_17MidiUartTransportEED2Ev:
 532              	.LVL20:
 533              	.LFB7195:
 534              		.file 13 "lib/libdaisy/src/hid/midi.h"
   1:lib/libdaisy/src/hid/midi.h **** #pragma once
   2:lib/libdaisy/src/hid/midi.h **** #ifndef DSY_MIDI_H
   3:lib/libdaisy/src/hid/midi.h **** #define DSY_MIDI_H
   4:lib/libdaisy/src/hid/midi.h **** 
   5:lib/libdaisy/src/hid/midi.h **** // TODO: make this adjustable
   6:lib/libdaisy/src/hid/midi.h **** #define SYSEX_BUFFER_LEN 128
   7:lib/libdaisy/src/hid/midi.h **** 
   8:lib/libdaisy/src/hid/midi.h **** #include <stdint.h>
   9:lib/libdaisy/src/hid/midi.h **** #include <stdlib.h>
  10:lib/libdaisy/src/hid/midi.h **** #include "per/uart.h"
  11:lib/libdaisy/src/hid/midi.h **** #include "util/ringbuffer.h"
  12:lib/libdaisy/src/hid/midi.h **** #include "hid/MidiEvent.h"
  13:lib/libdaisy/src/hid/midi.h **** #include "hid/usb_midi.h"
  14:lib/libdaisy/src/hid/midi.h **** #include "sys/system.h"
  15:lib/libdaisy/src/hid/midi.h **** 
  16:lib/libdaisy/src/hid/midi.h **** namespace daisy
  17:lib/libdaisy/src/hid/midi.h **** {
  18:lib/libdaisy/src/hid/midi.h **** /** @brief   Transport layer for sending and receiving MIDI data over UART 
  19:lib/libdaisy/src/hid/midi.h ****  *  @details This is the mode of communication used for TRS and DIN MIDI
  20:lib/libdaisy/src/hid/midi.h ****  *  @ingroup midi
  21:lib/libdaisy/src/hid/midi.h **** */
  22:lib/libdaisy/src/hid/midi.h **** class MidiUartTransport
  23:lib/libdaisy/src/hid/midi.h **** {
  24:lib/libdaisy/src/hid/midi.h ****   public:
  25:lib/libdaisy/src/hid/midi.h ****     MidiUartTransport() {}
  26:lib/libdaisy/src/hid/midi.h ****     ~MidiUartTransport() {}
  27:lib/libdaisy/src/hid/midi.h **** 
  28:lib/libdaisy/src/hid/midi.h ****     struct Config
  29:lib/libdaisy/src/hid/midi.h ****     {
  30:lib/libdaisy/src/hid/midi.h ****         UartHandler::Config::Peripheral periph;
  31:lib/libdaisy/src/hid/midi.h ****         dsy_gpio_pin                    rx;
  32:lib/libdaisy/src/hid/midi.h ****         dsy_gpio_pin                    tx;
  33:lib/libdaisy/src/hid/midi.h **** 
  34:lib/libdaisy/src/hid/midi.h ****         Config()
  35:lib/libdaisy/src/hid/midi.h ****         {
  36:lib/libdaisy/src/hid/midi.h ****             periph = UartHandler::Config::Peripheral::USART_1;
ARM GAS  /var/folders/fp/915b6f8s6gl4dt9rfrq38g500000gn/T//cchHy16I.s 			page 35


  37:lib/libdaisy/src/hid/midi.h ****             rx     = {DSY_GPIOB, 7};
  38:lib/libdaisy/src/hid/midi.h ****             tx     = {DSY_GPIOB, 6};
  39:lib/libdaisy/src/hid/midi.h ****         }
  40:lib/libdaisy/src/hid/midi.h ****     };
  41:lib/libdaisy/src/hid/midi.h **** 
  42:lib/libdaisy/src/hid/midi.h ****     inline void Init(Config config)
  43:lib/libdaisy/src/hid/midi.h ****     {
  44:lib/libdaisy/src/hid/midi.h ****         UartHandler::Config uart_config;
  45:lib/libdaisy/src/hid/midi.h **** 
  46:lib/libdaisy/src/hid/midi.h ****         //defaults
  47:lib/libdaisy/src/hid/midi.h ****         uart_config.baudrate   = 31250;
  48:lib/libdaisy/src/hid/midi.h ****         uart_config.stopbits   = UartHandler::Config::StopBits::BITS_1;
  49:lib/libdaisy/src/hid/midi.h ****         uart_config.parity     = UartHandler::Config::Parity::NONE;
  50:lib/libdaisy/src/hid/midi.h ****         uart_config.mode       = UartHandler::Config::Mode::TX_RX;
  51:lib/libdaisy/src/hid/midi.h ****         uart_config.wordlength = UartHandler::Config::WordLength::BITS_8;
  52:lib/libdaisy/src/hid/midi.h **** 
  53:lib/libdaisy/src/hid/midi.h ****         //user settings
  54:lib/libdaisy/src/hid/midi.h ****         uart_config.periph        = config.periph;
  55:lib/libdaisy/src/hid/midi.h ****         uart_config.pin_config.rx = config.rx;
  56:lib/libdaisy/src/hid/midi.h ****         uart_config.pin_config.tx = config.tx;
  57:lib/libdaisy/src/hid/midi.h **** 
  58:lib/libdaisy/src/hid/midi.h ****         uart_.Init(uart_config);
  59:lib/libdaisy/src/hid/midi.h ****     }
  60:lib/libdaisy/src/hid/midi.h **** 
  61:lib/libdaisy/src/hid/midi.h ****     inline void    StartRx() { uart_.StartRx(); }
  62:lib/libdaisy/src/hid/midi.h ****     inline size_t  Readable() { return uart_.Readable(); }
  63:lib/libdaisy/src/hid/midi.h ****     inline uint8_t Rx() { return uart_.PopRx(); }
  64:lib/libdaisy/src/hid/midi.h ****     inline bool    RxActive() { return uart_.RxActive(); }
  65:lib/libdaisy/src/hid/midi.h ****     inline void    FlushRx() { uart_.FlushRx(); }
  66:lib/libdaisy/src/hid/midi.h ****     inline void    Tx(uint8_t* buff, size_t size) { uart_.PollTx(buff, size); }
  67:lib/libdaisy/src/hid/midi.h **** 
  68:lib/libdaisy/src/hid/midi.h ****   private:
  69:lib/libdaisy/src/hid/midi.h ****     UartHandler uart_;
  70:lib/libdaisy/src/hid/midi.h **** };
  71:lib/libdaisy/src/hid/midi.h **** 
  72:lib/libdaisy/src/hid/midi.h **** /** 
  73:lib/libdaisy/src/hid/midi.h ****     @brief Simple MIDI Handler \n 
  74:lib/libdaisy/src/hid/midi.h ****     Parses bytes from an input into valid MidiEvents. \n 
  75:lib/libdaisy/src/hid/midi.h ****     The MidiEvents fill a FIFO queue that the user can pop messages from.
  76:lib/libdaisy/src/hid/midi.h ****     @author shensley
  77:lib/libdaisy/src/hid/midi.h ****     @date March 2020
  78:lib/libdaisy/src/hid/midi.h ****     @ingroup midi
  79:lib/libdaisy/src/hid/midi.h **** */
  80:lib/libdaisy/src/hid/midi.h **** template <typename Transport>
  81:lib/libdaisy/src/hid/midi.h **** class MidiHandler
  82:lib/libdaisy/src/hid/midi.h **** {
  83:lib/libdaisy/src/hid/midi.h ****   public:
  84:lib/libdaisy/src/hid/midi.h ****     MidiHandler() {}
  85:lib/libdaisy/src/hid/midi.h ****     ~MidiHandler() {}
 535              		.loc 13 85 5 is_stmt 1 view -0
 536              		.cfi_startproc
 537              		@ args = 0, pretend = 0, frame = 0
 538              		@ frame_needed = 0, uses_anonymous_args = 0
 539              		@ link register save eliminated.
 540              	.LBB3286:
 541              	.LBI3286:
  26:lib/libdaisy/src/hid/midi.h **** 
ARM GAS  /var/folders/fp/915b6f8s6gl4dt9rfrq38g500000gn/T//cchHy16I.s 			page 36


 542              		.loc 13 26 5 view .LVU96
  26:lib/libdaisy/src/hid/midi.h **** 
 543              		.loc 13 26 5 is_stmt 0 view .LVU97
 544              	.LBE3286:
 545              		.loc 13 85 21 view .LVU98
 546 0000 7047     		bx	lr
 547              		.cfi_endproc
 548              	.LFE7195:
 550              		.weak	_ZN5daisy11MidiHandlerINS_17MidiUartTransportEED1Ev
 551              		.thumb_set _ZN5daisy11MidiHandlerINS_17MidiUartTransportEED1Ev,_ZN5daisy11MidiHandlerINS_17MidiUar
 552 0002 00BF     		.section	.text._ZN7daisysp9DelayLineIfLj44100EED2Ev,"axG",%progbits,_ZN7daisysp9DelayLineIfLj44100
 553              		.align	1
 554              		.p2align 2,,3
 555              		.weak	_ZN7daisysp9DelayLineIfLj44100EED2Ev
 556              		.syntax unified
 557              		.thumb
 558              		.thumb_func
 559              		.fpu fpv5-d16
 561              	_ZN7daisysp9DelayLineIfLj44100EED2Ev:
 562              	.LVL21:
 563              	.LFB7198:
 564              		.file 14 "lib/DaisySP/Source/Utility/delayline.h"
   1:lib/DaisySP/Source/Utility/delayline.h **** #pragma once
   2:lib/DaisySP/Source/Utility/delayline.h **** #ifndef DSY_DELAY_H
   3:lib/DaisySP/Source/Utility/delayline.h **** #define DSY_DELAY_H
   4:lib/DaisySP/Source/Utility/delayline.h **** #include <stdlib.h>
   5:lib/DaisySP/Source/Utility/delayline.h **** #include <stdint.h>
   6:lib/DaisySP/Source/Utility/delayline.h **** namespace daisysp
   7:lib/DaisySP/Source/Utility/delayline.h **** {
   8:lib/DaisySP/Source/Utility/delayline.h **** /** Simple Delay line.
   9:lib/DaisySP/Source/Utility/delayline.h **** November 2019
  10:lib/DaisySP/Source/Utility/delayline.h **** 
  11:lib/DaisySP/Source/Utility/delayline.h **** Converted to Template December 2019
  12:lib/DaisySP/Source/Utility/delayline.h **** 
  13:lib/DaisySP/Source/Utility/delayline.h **** declaration example: (1 second of floats)
  14:lib/DaisySP/Source/Utility/delayline.h **** 
  15:lib/DaisySP/Source/Utility/delayline.h **** DelayLine<float, SAMPLE_RATE> del;
  16:lib/DaisySP/Source/Utility/delayline.h **** 
  17:lib/DaisySP/Source/Utility/delayline.h **** By: shensley
  18:lib/DaisySP/Source/Utility/delayline.h **** */
  19:lib/DaisySP/Source/Utility/delayline.h **** template <typename T, size_t max_size>
  20:lib/DaisySP/Source/Utility/delayline.h **** class DelayLine
  21:lib/DaisySP/Source/Utility/delayline.h **** {
  22:lib/DaisySP/Source/Utility/delayline.h ****   public:
  23:lib/DaisySP/Source/Utility/delayline.h ****     DelayLine() {}
  24:lib/DaisySP/Source/Utility/delayline.h ****     ~DelayLine() {}
 565              		.loc 14 24 5 is_stmt 1 view -0
 566              		.cfi_startproc
 567              		@ args = 0, pretend = 0, frame = 0
 568              		@ frame_needed = 0, uses_anonymous_args = 0
 569              		@ link register save eliminated.
 570              		.loc 14 24 19 is_stmt 0 view .LVU100
 571 0000 7047     		bx	lr
 572              		.cfi_endproc
 573              	.LFE7198:
 575              		.weak	_ZN7daisysp9DelayLineIfLj44100EED1Ev
 576              		.thumb_set _ZN7daisysp9DelayLineIfLj44100EED1Ev,_ZN7daisysp9DelayLineIfLj44100EED2Ev
ARM GAS  /var/folders/fp/915b6f8s6gl4dt9rfrq38g500000gn/T//cchHy16I.s 			page 37


 577 0002 00BF     		.section	.text._ZN3LFO4sineEv,"axG",%progbits,_ZN3LFO4sineEv,comdat
 578              		.align	1
 579              		.p2align 2,,3
 580              		.weak	_ZN3LFO4sineEv
 581              		.syntax unified
 582              		.thumb
 583              		.thumb_func
 584              		.fpu fpv5-d16
 586              	_ZN3LFO4sineEv:
 587              	.LVL22:
 588              	.LFB5829:
  49:src/LFO.h     ****         return sin(phase * twoPI);
 589              		.loc 8 49 11 is_stmt 1 view -0
 590              		.cfi_startproc
 591              		@ args = 0, pretend = 0, frame = 0
 592              		@ frame_needed = 0, uses_anonymous_args = 0
 593              		@ link register save eliminated.
  50:src/LFO.h     ****     }
 594              		.loc 8 50 9 view .LVU102
 595              	.LBB3287:
 596              	.LBI3287:
 243:/Applications/ARM/arm-none-eabi/include/c++/10.3.1/cmath **** 
 244:/Applications/ARM/arm-none-eabi/include/c++/10.3.1/cmath ****   inline _GLIBCXX_CONSTEXPR long double
 245:/Applications/ARM/arm-none-eabi/include/c++/10.3.1/cmath ****   fabs(long double __x)
 246:/Applications/ARM/arm-none-eabi/include/c++/10.3.1/cmath ****   { return __builtin_fabsl(__x); }
 247:/Applications/ARM/arm-none-eabi/include/c++/10.3.1/cmath **** #endif
 248:/Applications/ARM/arm-none-eabi/include/c++/10.3.1/cmath **** 
 249:/Applications/ARM/arm-none-eabi/include/c++/10.3.1/cmath ****   template<typename _Tp>
 250:/Applications/ARM/arm-none-eabi/include/c++/10.3.1/cmath ****     inline _GLIBCXX_CONSTEXPR
 251:/Applications/ARM/arm-none-eabi/include/c++/10.3.1/cmath ****     typename __gnu_cxx::__enable_if<__is_integer<_Tp>::__value,
 252:/Applications/ARM/arm-none-eabi/include/c++/10.3.1/cmath ****                                     double>::__type
 253:/Applications/ARM/arm-none-eabi/include/c++/10.3.1/cmath ****     fabs(_Tp __x)
 254:/Applications/ARM/arm-none-eabi/include/c++/10.3.1/cmath ****     { return __builtin_fabs(__x); }
 255:/Applications/ARM/arm-none-eabi/include/c++/10.3.1/cmath **** 
 256:/Applications/ARM/arm-none-eabi/include/c++/10.3.1/cmath ****   using ::floor;
 257:/Applications/ARM/arm-none-eabi/include/c++/10.3.1/cmath **** 
 258:/Applications/ARM/arm-none-eabi/include/c++/10.3.1/cmath **** #ifndef __CORRECT_ISO_CPP_MATH_H_PROTO
 259:/Applications/ARM/arm-none-eabi/include/c++/10.3.1/cmath ****   inline _GLIBCXX_CONSTEXPR float
 260:/Applications/ARM/arm-none-eabi/include/c++/10.3.1/cmath ****   floor(float __x)
 261:/Applications/ARM/arm-none-eabi/include/c++/10.3.1/cmath ****   { return __builtin_floorf(__x); }
 262:/Applications/ARM/arm-none-eabi/include/c++/10.3.1/cmath **** 
 263:/Applications/ARM/arm-none-eabi/include/c++/10.3.1/cmath ****   inline _GLIBCXX_CONSTEXPR long double
 264:/Applications/ARM/arm-none-eabi/include/c++/10.3.1/cmath ****   floor(long double __x)
 265:/Applications/ARM/arm-none-eabi/include/c++/10.3.1/cmath ****   { return __builtin_floorl(__x); }
 266:/Applications/ARM/arm-none-eabi/include/c++/10.3.1/cmath **** #endif
 267:/Applications/ARM/arm-none-eabi/include/c++/10.3.1/cmath **** 
 268:/Applications/ARM/arm-none-eabi/include/c++/10.3.1/cmath ****   template<typename _Tp>
 269:/Applications/ARM/arm-none-eabi/include/c++/10.3.1/cmath ****     inline _GLIBCXX_CONSTEXPR
 270:/Applications/ARM/arm-none-eabi/include/c++/10.3.1/cmath ****     typename __gnu_cxx::__enable_if<__is_integer<_Tp>::__value,
 271:/Applications/ARM/arm-none-eabi/include/c++/10.3.1/cmath ****                                     double>::__type
 272:/Applications/ARM/arm-none-eabi/include/c++/10.3.1/cmath ****     floor(_Tp __x)
 273:/Applications/ARM/arm-none-eabi/include/c++/10.3.1/cmath ****     { return __builtin_floor(__x); }
 274:/Applications/ARM/arm-none-eabi/include/c++/10.3.1/cmath **** 
 275:/Applications/ARM/arm-none-eabi/include/c++/10.3.1/cmath ****   using ::fmod;
 276:/Applications/ARM/arm-none-eabi/include/c++/10.3.1/cmath **** 
 277:/Applications/ARM/arm-none-eabi/include/c++/10.3.1/cmath **** #ifndef __CORRECT_ISO_CPP_MATH_H_PROTO
 278:/Applications/ARM/arm-none-eabi/include/c++/10.3.1/cmath ****   inline _GLIBCXX_CONSTEXPR float
ARM GAS  /var/folders/fp/915b6f8s6gl4dt9rfrq38g500000gn/T//cchHy16I.s 			page 38


 279:/Applications/ARM/arm-none-eabi/include/c++/10.3.1/cmath ****   fmod(float __x, float __y)
 280:/Applications/ARM/arm-none-eabi/include/c++/10.3.1/cmath ****   { return __builtin_fmodf(__x, __y); }
 281:/Applications/ARM/arm-none-eabi/include/c++/10.3.1/cmath **** 
 282:/Applications/ARM/arm-none-eabi/include/c++/10.3.1/cmath ****   inline _GLIBCXX_CONSTEXPR long double
 283:/Applications/ARM/arm-none-eabi/include/c++/10.3.1/cmath ****   fmod(long double __x, long double __y)
 284:/Applications/ARM/arm-none-eabi/include/c++/10.3.1/cmath ****   { return __builtin_fmodl(__x, __y); }
 285:/Applications/ARM/arm-none-eabi/include/c++/10.3.1/cmath **** #endif
 286:/Applications/ARM/arm-none-eabi/include/c++/10.3.1/cmath **** 
 287:/Applications/ARM/arm-none-eabi/include/c++/10.3.1/cmath ****   template<typename _Tp, typename _Up>
 288:/Applications/ARM/arm-none-eabi/include/c++/10.3.1/cmath ****     inline _GLIBCXX_CONSTEXPR
 289:/Applications/ARM/arm-none-eabi/include/c++/10.3.1/cmath ****     typename __gnu_cxx::__promote_2<_Tp, _Up>::__type
 290:/Applications/ARM/arm-none-eabi/include/c++/10.3.1/cmath ****     fmod(_Tp __x, _Up __y)
 291:/Applications/ARM/arm-none-eabi/include/c++/10.3.1/cmath ****     {
 292:/Applications/ARM/arm-none-eabi/include/c++/10.3.1/cmath ****       typedef typename __gnu_cxx::__promote_2<_Tp, _Up>::__type __type;
 293:/Applications/ARM/arm-none-eabi/include/c++/10.3.1/cmath ****       return fmod(__type(__x), __type(__y));
 294:/Applications/ARM/arm-none-eabi/include/c++/10.3.1/cmath ****     }
 295:/Applications/ARM/arm-none-eabi/include/c++/10.3.1/cmath **** 
 296:/Applications/ARM/arm-none-eabi/include/c++/10.3.1/cmath ****   using ::frexp;
 297:/Applications/ARM/arm-none-eabi/include/c++/10.3.1/cmath **** 
 298:/Applications/ARM/arm-none-eabi/include/c++/10.3.1/cmath **** #ifndef __CORRECT_ISO_CPP_MATH_H_PROTO
 299:/Applications/ARM/arm-none-eabi/include/c++/10.3.1/cmath ****   inline float
 300:/Applications/ARM/arm-none-eabi/include/c++/10.3.1/cmath ****   frexp(float __x, int* __exp)
 301:/Applications/ARM/arm-none-eabi/include/c++/10.3.1/cmath ****   { return __builtin_frexpf(__x, __exp); }
 302:/Applications/ARM/arm-none-eabi/include/c++/10.3.1/cmath **** 
 303:/Applications/ARM/arm-none-eabi/include/c++/10.3.1/cmath ****   inline long double
 304:/Applications/ARM/arm-none-eabi/include/c++/10.3.1/cmath ****   frexp(long double __x, int* __exp)
 305:/Applications/ARM/arm-none-eabi/include/c++/10.3.1/cmath ****   { return __builtin_frexpl(__x, __exp); }
 306:/Applications/ARM/arm-none-eabi/include/c++/10.3.1/cmath **** #endif
 307:/Applications/ARM/arm-none-eabi/include/c++/10.3.1/cmath **** 
 308:/Applications/ARM/arm-none-eabi/include/c++/10.3.1/cmath ****   template<typename _Tp>
 309:/Applications/ARM/arm-none-eabi/include/c++/10.3.1/cmath ****     inline _GLIBCXX_CONSTEXPR
 310:/Applications/ARM/arm-none-eabi/include/c++/10.3.1/cmath ****     typename __gnu_cxx::__enable_if<__is_integer<_Tp>::__value, 
 311:/Applications/ARM/arm-none-eabi/include/c++/10.3.1/cmath ****                                     double>::__type
 312:/Applications/ARM/arm-none-eabi/include/c++/10.3.1/cmath ****     frexp(_Tp __x, int* __exp)
 313:/Applications/ARM/arm-none-eabi/include/c++/10.3.1/cmath ****     { return __builtin_frexp(__x, __exp); }
 314:/Applications/ARM/arm-none-eabi/include/c++/10.3.1/cmath **** 
 315:/Applications/ARM/arm-none-eabi/include/c++/10.3.1/cmath ****   using ::ldexp;
 316:/Applications/ARM/arm-none-eabi/include/c++/10.3.1/cmath **** 
 317:/Applications/ARM/arm-none-eabi/include/c++/10.3.1/cmath **** #ifndef __CORRECT_ISO_CPP_MATH_H_PROTO
 318:/Applications/ARM/arm-none-eabi/include/c++/10.3.1/cmath ****   inline _GLIBCXX_CONSTEXPR float
 319:/Applications/ARM/arm-none-eabi/include/c++/10.3.1/cmath ****   ldexp(float __x, int __exp)
 320:/Applications/ARM/arm-none-eabi/include/c++/10.3.1/cmath ****   { return __builtin_ldexpf(__x, __exp); }
 321:/Applications/ARM/arm-none-eabi/include/c++/10.3.1/cmath **** 
 322:/Applications/ARM/arm-none-eabi/include/c++/10.3.1/cmath ****   inline _GLIBCXX_CONSTEXPR long double
 323:/Applications/ARM/arm-none-eabi/include/c++/10.3.1/cmath ****   ldexp(long double __x, int __exp)
 324:/Applications/ARM/arm-none-eabi/include/c++/10.3.1/cmath ****   { return __builtin_ldexpl(__x, __exp); }
 325:/Applications/ARM/arm-none-eabi/include/c++/10.3.1/cmath **** #endif
 326:/Applications/ARM/arm-none-eabi/include/c++/10.3.1/cmath **** 
 327:/Applications/ARM/arm-none-eabi/include/c++/10.3.1/cmath ****   template<typename _Tp>
 328:/Applications/ARM/arm-none-eabi/include/c++/10.3.1/cmath ****     inline _GLIBCXX_CONSTEXPR
 329:/Applications/ARM/arm-none-eabi/include/c++/10.3.1/cmath ****     typename __gnu_cxx::__enable_if<__is_integer<_Tp>::__value, 
 330:/Applications/ARM/arm-none-eabi/include/c++/10.3.1/cmath ****                                     double>::__type
 331:/Applications/ARM/arm-none-eabi/include/c++/10.3.1/cmath ****     ldexp(_Tp __x, int __exp)
 332:/Applications/ARM/arm-none-eabi/include/c++/10.3.1/cmath ****     { return __builtin_ldexp(__x, __exp); }
 333:/Applications/ARM/arm-none-eabi/include/c++/10.3.1/cmath **** 
 334:/Applications/ARM/arm-none-eabi/include/c++/10.3.1/cmath ****   using ::log;
 335:/Applications/ARM/arm-none-eabi/include/c++/10.3.1/cmath **** 
ARM GAS  /var/folders/fp/915b6f8s6gl4dt9rfrq38g500000gn/T//cchHy16I.s 			page 39


 336:/Applications/ARM/arm-none-eabi/include/c++/10.3.1/cmath **** #ifndef __CORRECT_ISO_CPP_MATH_H_PROTO
 337:/Applications/ARM/arm-none-eabi/include/c++/10.3.1/cmath ****   inline _GLIBCXX_CONSTEXPR float
 338:/Applications/ARM/arm-none-eabi/include/c++/10.3.1/cmath ****   log(float __x)
 339:/Applications/ARM/arm-none-eabi/include/c++/10.3.1/cmath ****   { return __builtin_logf(__x); }
 340:/Applications/ARM/arm-none-eabi/include/c++/10.3.1/cmath **** 
 341:/Applications/ARM/arm-none-eabi/include/c++/10.3.1/cmath ****   inline _GLIBCXX_CONSTEXPR long double
 342:/Applications/ARM/arm-none-eabi/include/c++/10.3.1/cmath ****   log(long double __x)
 343:/Applications/ARM/arm-none-eabi/include/c++/10.3.1/cmath ****   { return __builtin_logl(__x); }
 344:/Applications/ARM/arm-none-eabi/include/c++/10.3.1/cmath **** #endif
 345:/Applications/ARM/arm-none-eabi/include/c++/10.3.1/cmath **** 
 346:/Applications/ARM/arm-none-eabi/include/c++/10.3.1/cmath ****   template<typename _Tp>
 347:/Applications/ARM/arm-none-eabi/include/c++/10.3.1/cmath ****     inline _GLIBCXX_CONSTEXPR
 348:/Applications/ARM/arm-none-eabi/include/c++/10.3.1/cmath ****     typename __gnu_cxx::__enable_if<__is_integer<_Tp>::__value, 
 349:/Applications/ARM/arm-none-eabi/include/c++/10.3.1/cmath ****                                     double>::__type
 350:/Applications/ARM/arm-none-eabi/include/c++/10.3.1/cmath ****     log(_Tp __x)
 351:/Applications/ARM/arm-none-eabi/include/c++/10.3.1/cmath ****     { return __builtin_log(__x); }
 352:/Applications/ARM/arm-none-eabi/include/c++/10.3.1/cmath **** 
 353:/Applications/ARM/arm-none-eabi/include/c++/10.3.1/cmath ****   using ::log10;
 354:/Applications/ARM/arm-none-eabi/include/c++/10.3.1/cmath **** 
 355:/Applications/ARM/arm-none-eabi/include/c++/10.3.1/cmath **** #ifndef __CORRECT_ISO_CPP_MATH_H_PROTO
 356:/Applications/ARM/arm-none-eabi/include/c++/10.3.1/cmath ****   inline _GLIBCXX_CONSTEXPR float
 357:/Applications/ARM/arm-none-eabi/include/c++/10.3.1/cmath ****   log10(float __x)
 358:/Applications/ARM/arm-none-eabi/include/c++/10.3.1/cmath ****   { return __builtin_log10f(__x); }
 359:/Applications/ARM/arm-none-eabi/include/c++/10.3.1/cmath **** 
 360:/Applications/ARM/arm-none-eabi/include/c++/10.3.1/cmath ****   inline _GLIBCXX_CONSTEXPR long double
 361:/Applications/ARM/arm-none-eabi/include/c++/10.3.1/cmath ****   log10(long double __x)
 362:/Applications/ARM/arm-none-eabi/include/c++/10.3.1/cmath ****   { return __builtin_log10l(__x); }
 363:/Applications/ARM/arm-none-eabi/include/c++/10.3.1/cmath **** #endif
 364:/Applications/ARM/arm-none-eabi/include/c++/10.3.1/cmath **** 
 365:/Applications/ARM/arm-none-eabi/include/c++/10.3.1/cmath ****   template<typename _Tp>
 366:/Applications/ARM/arm-none-eabi/include/c++/10.3.1/cmath ****     inline _GLIBCXX_CONSTEXPR
 367:/Applications/ARM/arm-none-eabi/include/c++/10.3.1/cmath ****     typename __gnu_cxx::__enable_if<__is_integer<_Tp>::__value,
 368:/Applications/ARM/arm-none-eabi/include/c++/10.3.1/cmath ****                                     double>::__type
 369:/Applications/ARM/arm-none-eabi/include/c++/10.3.1/cmath ****     log10(_Tp __x)
 370:/Applications/ARM/arm-none-eabi/include/c++/10.3.1/cmath ****     { return __builtin_log10(__x); }
 371:/Applications/ARM/arm-none-eabi/include/c++/10.3.1/cmath **** 
 372:/Applications/ARM/arm-none-eabi/include/c++/10.3.1/cmath ****   using ::modf;
 373:/Applications/ARM/arm-none-eabi/include/c++/10.3.1/cmath **** 
 374:/Applications/ARM/arm-none-eabi/include/c++/10.3.1/cmath **** #ifndef __CORRECT_ISO_CPP_MATH_H_PROTO
 375:/Applications/ARM/arm-none-eabi/include/c++/10.3.1/cmath ****   inline float
 376:/Applications/ARM/arm-none-eabi/include/c++/10.3.1/cmath ****   modf(float __x, float* __iptr)
 377:/Applications/ARM/arm-none-eabi/include/c++/10.3.1/cmath ****   { return __builtin_modff(__x, __iptr); }
 378:/Applications/ARM/arm-none-eabi/include/c++/10.3.1/cmath **** 
 379:/Applications/ARM/arm-none-eabi/include/c++/10.3.1/cmath ****   inline long double
 380:/Applications/ARM/arm-none-eabi/include/c++/10.3.1/cmath ****   modf(long double __x, long double* __iptr)
 381:/Applications/ARM/arm-none-eabi/include/c++/10.3.1/cmath ****   { return __builtin_modfl(__x, __iptr); }
 382:/Applications/ARM/arm-none-eabi/include/c++/10.3.1/cmath **** #endif
 383:/Applications/ARM/arm-none-eabi/include/c++/10.3.1/cmath **** 
 384:/Applications/ARM/arm-none-eabi/include/c++/10.3.1/cmath ****   using ::pow;
 385:/Applications/ARM/arm-none-eabi/include/c++/10.3.1/cmath **** 
 386:/Applications/ARM/arm-none-eabi/include/c++/10.3.1/cmath **** #ifndef __CORRECT_ISO_CPP_MATH_H_PROTO
 387:/Applications/ARM/arm-none-eabi/include/c++/10.3.1/cmath ****   inline _GLIBCXX_CONSTEXPR float
 388:/Applications/ARM/arm-none-eabi/include/c++/10.3.1/cmath ****   pow(float __x, float __y)
 389:/Applications/ARM/arm-none-eabi/include/c++/10.3.1/cmath ****   { return __builtin_powf(__x, __y); }
 390:/Applications/ARM/arm-none-eabi/include/c++/10.3.1/cmath **** 
 391:/Applications/ARM/arm-none-eabi/include/c++/10.3.1/cmath ****   inline _GLIBCXX_CONSTEXPR long double
 392:/Applications/ARM/arm-none-eabi/include/c++/10.3.1/cmath ****   pow(long double __x, long double __y)
ARM GAS  /var/folders/fp/915b6f8s6gl4dt9rfrq38g500000gn/T//cchHy16I.s 			page 40


 393:/Applications/ARM/arm-none-eabi/include/c++/10.3.1/cmath ****   { return __builtin_powl(__x, __y); }
 394:/Applications/ARM/arm-none-eabi/include/c++/10.3.1/cmath **** 
 395:/Applications/ARM/arm-none-eabi/include/c++/10.3.1/cmath **** #if __cplusplus < 201103L
 396:/Applications/ARM/arm-none-eabi/include/c++/10.3.1/cmath ****   // _GLIBCXX_RESOLVE_LIB_DEFECTS
 397:/Applications/ARM/arm-none-eabi/include/c++/10.3.1/cmath ****   // DR 550. What should the return type of pow(float,int) be?
 398:/Applications/ARM/arm-none-eabi/include/c++/10.3.1/cmath ****   inline double
 399:/Applications/ARM/arm-none-eabi/include/c++/10.3.1/cmath ****   pow(double __x, int __i)
 400:/Applications/ARM/arm-none-eabi/include/c++/10.3.1/cmath ****   { return __builtin_powi(__x, __i); }
 401:/Applications/ARM/arm-none-eabi/include/c++/10.3.1/cmath **** 
 402:/Applications/ARM/arm-none-eabi/include/c++/10.3.1/cmath ****   inline float
 403:/Applications/ARM/arm-none-eabi/include/c++/10.3.1/cmath ****   pow(float __x, int __n)
 404:/Applications/ARM/arm-none-eabi/include/c++/10.3.1/cmath ****   { return __builtin_powif(__x, __n); }
 405:/Applications/ARM/arm-none-eabi/include/c++/10.3.1/cmath **** 
 406:/Applications/ARM/arm-none-eabi/include/c++/10.3.1/cmath ****   inline long double
 407:/Applications/ARM/arm-none-eabi/include/c++/10.3.1/cmath ****   pow(long double __x, int __n)
 408:/Applications/ARM/arm-none-eabi/include/c++/10.3.1/cmath ****   { return __builtin_powil(__x, __n); }
 409:/Applications/ARM/arm-none-eabi/include/c++/10.3.1/cmath **** #endif
 410:/Applications/ARM/arm-none-eabi/include/c++/10.3.1/cmath **** #endif
 411:/Applications/ARM/arm-none-eabi/include/c++/10.3.1/cmath **** 
 412:/Applications/ARM/arm-none-eabi/include/c++/10.3.1/cmath ****   template<typename _Tp, typename _Up>
 413:/Applications/ARM/arm-none-eabi/include/c++/10.3.1/cmath ****     inline _GLIBCXX_CONSTEXPR
 414:/Applications/ARM/arm-none-eabi/include/c++/10.3.1/cmath ****     typename __gnu_cxx::__promote_2<_Tp, _Up>::__type
 415:/Applications/ARM/arm-none-eabi/include/c++/10.3.1/cmath ****     pow(_Tp __x, _Up __y)
 416:/Applications/ARM/arm-none-eabi/include/c++/10.3.1/cmath ****     {
 417:/Applications/ARM/arm-none-eabi/include/c++/10.3.1/cmath ****       typedef typename __gnu_cxx::__promote_2<_Tp, _Up>::__type __type;
 418:/Applications/ARM/arm-none-eabi/include/c++/10.3.1/cmath ****       return pow(__type(__x), __type(__y));
 419:/Applications/ARM/arm-none-eabi/include/c++/10.3.1/cmath ****     }
 420:/Applications/ARM/arm-none-eabi/include/c++/10.3.1/cmath **** 
 421:/Applications/ARM/arm-none-eabi/include/c++/10.3.1/cmath ****   using ::sin;
 422:/Applications/ARM/arm-none-eabi/include/c++/10.3.1/cmath **** 
 423:/Applications/ARM/arm-none-eabi/include/c++/10.3.1/cmath **** #ifndef __CORRECT_ISO_CPP_MATH_H_PROTO
 424:/Applications/ARM/arm-none-eabi/include/c++/10.3.1/cmath ****   inline _GLIBCXX_CONSTEXPR float
 425:/Applications/ARM/arm-none-eabi/include/c++/10.3.1/cmath ****   sin(float __x)
 597              		.loc 9 425 3 view .LVU103
 598              	.LBB3288:
 426:/Applications/ARM/arm-none-eabi/include/c++/10.3.1/cmath ****   { return __builtin_sinf(__x); }
 599              		.loc 9 426 5 view .LVU104
 600              	.LBE3288:
 601              	.LBE3287:
  50:src/LFO.h     ****     }
 602              		.loc 8 50 19 is_stmt 0 view .LVU105
 603 0000 90ED030A 		vldr.32	s0, [r0, #12]
 604 0004 D0ED047A 		vldr.32	s15, [r0, #16]
 605              	.LBB3290:
 606              	.LBB3289:
 607              		.loc 9 426 26 view .LVU106
 608 0008 20EE270A 		vmul.f32	s0, s0, s15
 609              	.LVL23:
 610              		.loc 9 426 26 view .LVU107
 611 000c FFF7FEBF 		b	sinf
 612              	.LVL24:
 613              		.loc 9 426 26 view .LVU108
 614              	.LBE3289:
 615              	.LBE3290:
 616              		.cfi_endproc
 617              	.LFE5829:
 619              		.section	.text._ZNSt6vectorI15SculptParameterSaIS0_EED2Ev,"axG",%progbits,_ZNSt6vectorI15SculptPar
ARM GAS  /var/folders/fp/915b6f8s6gl4dt9rfrq38g500000gn/T//cchHy16I.s 			page 41


 620              		.align	1
 621              		.p2align 2,,3
 622              		.weak	_ZNSt6vectorI15SculptParameterSaIS0_EED2Ev
 623              		.syntax unified
 624              		.thumb
 625              		.thumb_func
 626              		.fpu fpv5-d16
 628              	_ZNSt6vectorI15SculptParameterSaIS0_EED2Ev:
 629              	.LVL25:
 630              	.LFB7192:
 631              		.file 15 "/Applications/ARM/arm-none-eabi/include/c++/10.3.1/bits/stl_vector.h"
   1:/Applications/ARM/arm-none-eabi/include/c++/10.3.1/bits/stl_vector.h **** // Vector implementation -*- C++ -*-
   2:/Applications/ARM/arm-none-eabi/include/c++/10.3.1/bits/stl_vector.h **** 
   3:/Applications/ARM/arm-none-eabi/include/c++/10.3.1/bits/stl_vector.h **** // Copyright (C) 2001-2020 Free Software Foundation, Inc.
   4:/Applications/ARM/arm-none-eabi/include/c++/10.3.1/bits/stl_vector.h **** //
   5:/Applications/ARM/arm-none-eabi/include/c++/10.3.1/bits/stl_vector.h **** // This file is part of the GNU ISO C++ Library.  This library is free
   6:/Applications/ARM/arm-none-eabi/include/c++/10.3.1/bits/stl_vector.h **** // software; you can redistribute it and/or modify it under the
   7:/Applications/ARM/arm-none-eabi/include/c++/10.3.1/bits/stl_vector.h **** // terms of the GNU General Public License as published by the
   8:/Applications/ARM/arm-none-eabi/include/c++/10.3.1/bits/stl_vector.h **** // Free Software Foundation; either version 3, or (at your option)
   9:/Applications/ARM/arm-none-eabi/include/c++/10.3.1/bits/stl_vector.h **** // any later version.
  10:/Applications/ARM/arm-none-eabi/include/c++/10.3.1/bits/stl_vector.h **** 
  11:/Applications/ARM/arm-none-eabi/include/c++/10.3.1/bits/stl_vector.h **** // This library is distributed in the hope that it will be useful,
  12:/Applications/ARM/arm-none-eabi/include/c++/10.3.1/bits/stl_vector.h **** // but WITHOUT ANY WARRANTY; without even the implied warranty of
  13:/Applications/ARM/arm-none-eabi/include/c++/10.3.1/bits/stl_vector.h **** // MERCHANTABILITY or FITNESS FOR A PARTICULAR PURPOSE.  See the
  14:/Applications/ARM/arm-none-eabi/include/c++/10.3.1/bits/stl_vector.h **** // GNU General Public License for more details.
  15:/Applications/ARM/arm-none-eabi/include/c++/10.3.1/bits/stl_vector.h **** 
  16:/Applications/ARM/arm-none-eabi/include/c++/10.3.1/bits/stl_vector.h **** // Under Section 7 of GPL version 3, you are granted additional
  17:/Applications/ARM/arm-none-eabi/include/c++/10.3.1/bits/stl_vector.h **** // permissions described in the GCC Runtime Library Exception, version
  18:/Applications/ARM/arm-none-eabi/include/c++/10.3.1/bits/stl_vector.h **** // 3.1, as published by the Free Software Foundation.
  19:/Applications/ARM/arm-none-eabi/include/c++/10.3.1/bits/stl_vector.h **** 
  20:/Applications/ARM/arm-none-eabi/include/c++/10.3.1/bits/stl_vector.h **** // You should have received a copy of the GNU General Public License and
  21:/Applications/ARM/arm-none-eabi/include/c++/10.3.1/bits/stl_vector.h **** // a copy of the GCC Runtime Library Exception along with this program;
  22:/Applications/ARM/arm-none-eabi/include/c++/10.3.1/bits/stl_vector.h **** // see the files COPYING3 and COPYING.RUNTIME respectively.  If not, see
  23:/Applications/ARM/arm-none-eabi/include/c++/10.3.1/bits/stl_vector.h **** // <http://www.gnu.org/licenses/>.
  24:/Applications/ARM/arm-none-eabi/include/c++/10.3.1/bits/stl_vector.h **** 
  25:/Applications/ARM/arm-none-eabi/include/c++/10.3.1/bits/stl_vector.h **** /*
  26:/Applications/ARM/arm-none-eabi/include/c++/10.3.1/bits/stl_vector.h ****  *
  27:/Applications/ARM/arm-none-eabi/include/c++/10.3.1/bits/stl_vector.h ****  * Copyright (c) 1994
  28:/Applications/ARM/arm-none-eabi/include/c++/10.3.1/bits/stl_vector.h ****  * Hewlett-Packard Company
  29:/Applications/ARM/arm-none-eabi/include/c++/10.3.1/bits/stl_vector.h ****  *
  30:/Applications/ARM/arm-none-eabi/include/c++/10.3.1/bits/stl_vector.h ****  * Permission to use, copy, modify, distribute and sell this software
  31:/Applications/ARM/arm-none-eabi/include/c++/10.3.1/bits/stl_vector.h ****  * and its documentation for any purpose is hereby granted without fee,
  32:/Applications/ARM/arm-none-eabi/include/c++/10.3.1/bits/stl_vector.h ****  * provided that the above copyright notice appear in all copies and
  33:/Applications/ARM/arm-none-eabi/include/c++/10.3.1/bits/stl_vector.h ****  * that both that copyright notice and this permission notice appear
  34:/Applications/ARM/arm-none-eabi/include/c++/10.3.1/bits/stl_vector.h ****  * in supporting documentation.  Hewlett-Packard Company makes no
  35:/Applications/ARM/arm-none-eabi/include/c++/10.3.1/bits/stl_vector.h ****  * representations about the suitability of this software for any
  36:/Applications/ARM/arm-none-eabi/include/c++/10.3.1/bits/stl_vector.h ****  * purpose.  It is provided "as is" without express or implied warranty.
  37:/Applications/ARM/arm-none-eabi/include/c++/10.3.1/bits/stl_vector.h ****  *
  38:/Applications/ARM/arm-none-eabi/include/c++/10.3.1/bits/stl_vector.h ****  *
  39:/Applications/ARM/arm-none-eabi/include/c++/10.3.1/bits/stl_vector.h ****  * Copyright (c) 1996
  40:/Applications/ARM/arm-none-eabi/include/c++/10.3.1/bits/stl_vector.h ****  * Silicon Graphics Computer Systems, Inc.
  41:/Applications/ARM/arm-none-eabi/include/c++/10.3.1/bits/stl_vector.h ****  *
  42:/Applications/ARM/arm-none-eabi/include/c++/10.3.1/bits/stl_vector.h ****  * Permission to use, copy, modify, distribute and sell this software
  43:/Applications/ARM/arm-none-eabi/include/c++/10.3.1/bits/stl_vector.h ****  * and its documentation for any purpose is hereby granted without fee,
  44:/Applications/ARM/arm-none-eabi/include/c++/10.3.1/bits/stl_vector.h ****  * provided that the above copyright notice appear in all copies and
  45:/Applications/ARM/arm-none-eabi/include/c++/10.3.1/bits/stl_vector.h ****  * that both that copyright notice and this permission notice appear
  46:/Applications/ARM/arm-none-eabi/include/c++/10.3.1/bits/stl_vector.h ****  * in supporting documentation.  Silicon Graphics makes no
ARM GAS  /var/folders/fp/915b6f8s6gl4dt9rfrq38g500000gn/T//cchHy16I.s 			page 42


  47:/Applications/ARM/arm-none-eabi/include/c++/10.3.1/bits/stl_vector.h ****  * representations about the suitability of this  software for any
  48:/Applications/ARM/arm-none-eabi/include/c++/10.3.1/bits/stl_vector.h ****  * purpose.  It is provided "as is" without express or implied warranty.
  49:/Applications/ARM/arm-none-eabi/include/c++/10.3.1/bits/stl_vector.h ****  */
  50:/Applications/ARM/arm-none-eabi/include/c++/10.3.1/bits/stl_vector.h **** 
  51:/Applications/ARM/arm-none-eabi/include/c++/10.3.1/bits/stl_vector.h **** /** @file bits/stl_vector.h
  52:/Applications/ARM/arm-none-eabi/include/c++/10.3.1/bits/stl_vector.h ****  *  This is an internal header file, included by other library headers.
  53:/Applications/ARM/arm-none-eabi/include/c++/10.3.1/bits/stl_vector.h ****  *  Do not attempt to use it directly. @headername{vector}
  54:/Applications/ARM/arm-none-eabi/include/c++/10.3.1/bits/stl_vector.h ****  */
  55:/Applications/ARM/arm-none-eabi/include/c++/10.3.1/bits/stl_vector.h **** 
  56:/Applications/ARM/arm-none-eabi/include/c++/10.3.1/bits/stl_vector.h **** #ifndef _STL_VECTOR_H
  57:/Applications/ARM/arm-none-eabi/include/c++/10.3.1/bits/stl_vector.h **** #define _STL_VECTOR_H 1
  58:/Applications/ARM/arm-none-eabi/include/c++/10.3.1/bits/stl_vector.h **** 
  59:/Applications/ARM/arm-none-eabi/include/c++/10.3.1/bits/stl_vector.h **** #include <bits/stl_iterator_base_funcs.h>
  60:/Applications/ARM/arm-none-eabi/include/c++/10.3.1/bits/stl_vector.h **** #include <bits/functexcept.h>
  61:/Applications/ARM/arm-none-eabi/include/c++/10.3.1/bits/stl_vector.h **** #include <bits/concept_check.h>
  62:/Applications/ARM/arm-none-eabi/include/c++/10.3.1/bits/stl_vector.h **** #if __cplusplus >= 201103L
  63:/Applications/ARM/arm-none-eabi/include/c++/10.3.1/bits/stl_vector.h **** #include <initializer_list>
  64:/Applications/ARM/arm-none-eabi/include/c++/10.3.1/bits/stl_vector.h **** #endif
  65:/Applications/ARM/arm-none-eabi/include/c++/10.3.1/bits/stl_vector.h **** #if __cplusplus > 201703L
  66:/Applications/ARM/arm-none-eabi/include/c++/10.3.1/bits/stl_vector.h **** # include <compare>
  67:/Applications/ARM/arm-none-eabi/include/c++/10.3.1/bits/stl_vector.h **** #endif
  68:/Applications/ARM/arm-none-eabi/include/c++/10.3.1/bits/stl_vector.h **** 
  69:/Applications/ARM/arm-none-eabi/include/c++/10.3.1/bits/stl_vector.h **** #include <debug/assertions.h>
  70:/Applications/ARM/arm-none-eabi/include/c++/10.3.1/bits/stl_vector.h **** 
  71:/Applications/ARM/arm-none-eabi/include/c++/10.3.1/bits/stl_vector.h **** #if _GLIBCXX_SANITIZE_STD_ALLOCATOR && _GLIBCXX_SANITIZE_VECTOR
  72:/Applications/ARM/arm-none-eabi/include/c++/10.3.1/bits/stl_vector.h **** extern "C" void
  73:/Applications/ARM/arm-none-eabi/include/c++/10.3.1/bits/stl_vector.h **** __sanitizer_annotate_contiguous_container(const void*, const void*,
  74:/Applications/ARM/arm-none-eabi/include/c++/10.3.1/bits/stl_vector.h **** 					  const void*, const void*);
  75:/Applications/ARM/arm-none-eabi/include/c++/10.3.1/bits/stl_vector.h **** #endif
  76:/Applications/ARM/arm-none-eabi/include/c++/10.3.1/bits/stl_vector.h **** 
  77:/Applications/ARM/arm-none-eabi/include/c++/10.3.1/bits/stl_vector.h **** namespace std _GLIBCXX_VISIBILITY(default)
  78:/Applications/ARM/arm-none-eabi/include/c++/10.3.1/bits/stl_vector.h **** {
  79:/Applications/ARM/arm-none-eabi/include/c++/10.3.1/bits/stl_vector.h **** _GLIBCXX_BEGIN_NAMESPACE_VERSION
  80:/Applications/ARM/arm-none-eabi/include/c++/10.3.1/bits/stl_vector.h **** _GLIBCXX_BEGIN_NAMESPACE_CONTAINER
  81:/Applications/ARM/arm-none-eabi/include/c++/10.3.1/bits/stl_vector.h **** 
  82:/Applications/ARM/arm-none-eabi/include/c++/10.3.1/bits/stl_vector.h ****   /// See bits/stl_deque.h's _Deque_base for an explanation.
  83:/Applications/ARM/arm-none-eabi/include/c++/10.3.1/bits/stl_vector.h ****   template<typename _Tp, typename _Alloc>
  84:/Applications/ARM/arm-none-eabi/include/c++/10.3.1/bits/stl_vector.h ****     struct _Vector_base
  85:/Applications/ARM/arm-none-eabi/include/c++/10.3.1/bits/stl_vector.h ****     {
  86:/Applications/ARM/arm-none-eabi/include/c++/10.3.1/bits/stl_vector.h ****       typedef typename __gnu_cxx::__alloc_traits<_Alloc>::template
  87:/Applications/ARM/arm-none-eabi/include/c++/10.3.1/bits/stl_vector.h **** 	rebind<_Tp>::other _Tp_alloc_type;
  88:/Applications/ARM/arm-none-eabi/include/c++/10.3.1/bits/stl_vector.h ****       typedef typename __gnu_cxx::__alloc_traits<_Tp_alloc_type>::pointer
  89:/Applications/ARM/arm-none-eabi/include/c++/10.3.1/bits/stl_vector.h ****        	pointer;
  90:/Applications/ARM/arm-none-eabi/include/c++/10.3.1/bits/stl_vector.h **** 
  91:/Applications/ARM/arm-none-eabi/include/c++/10.3.1/bits/stl_vector.h ****       struct _Vector_impl_data
  92:/Applications/ARM/arm-none-eabi/include/c++/10.3.1/bits/stl_vector.h ****       {
  93:/Applications/ARM/arm-none-eabi/include/c++/10.3.1/bits/stl_vector.h **** 	pointer _M_start;
  94:/Applications/ARM/arm-none-eabi/include/c++/10.3.1/bits/stl_vector.h **** 	pointer _M_finish;
  95:/Applications/ARM/arm-none-eabi/include/c++/10.3.1/bits/stl_vector.h **** 	pointer _M_end_of_storage;
  96:/Applications/ARM/arm-none-eabi/include/c++/10.3.1/bits/stl_vector.h **** 
  97:/Applications/ARM/arm-none-eabi/include/c++/10.3.1/bits/stl_vector.h **** 	_Vector_impl_data() _GLIBCXX_NOEXCEPT
  98:/Applications/ARM/arm-none-eabi/include/c++/10.3.1/bits/stl_vector.h **** 	: _M_start(), _M_finish(), _M_end_of_storage()
  99:/Applications/ARM/arm-none-eabi/include/c++/10.3.1/bits/stl_vector.h **** 	{ }
 100:/Applications/ARM/arm-none-eabi/include/c++/10.3.1/bits/stl_vector.h **** 
 101:/Applications/ARM/arm-none-eabi/include/c++/10.3.1/bits/stl_vector.h **** #if __cplusplus >= 201103L
 102:/Applications/ARM/arm-none-eabi/include/c++/10.3.1/bits/stl_vector.h **** 	_Vector_impl_data(_Vector_impl_data&& __x) noexcept
 103:/Applications/ARM/arm-none-eabi/include/c++/10.3.1/bits/stl_vector.h **** 	: _M_start(__x._M_start), _M_finish(__x._M_finish),
ARM GAS  /var/folders/fp/915b6f8s6gl4dt9rfrq38g500000gn/T//cchHy16I.s 			page 43


 104:/Applications/ARM/arm-none-eabi/include/c++/10.3.1/bits/stl_vector.h **** 	  _M_end_of_storage(__x._M_end_of_storage)
 105:/Applications/ARM/arm-none-eabi/include/c++/10.3.1/bits/stl_vector.h **** 	{ __x._M_start = __x._M_finish = __x._M_end_of_storage = pointer(); }
 106:/Applications/ARM/arm-none-eabi/include/c++/10.3.1/bits/stl_vector.h **** #endif
 107:/Applications/ARM/arm-none-eabi/include/c++/10.3.1/bits/stl_vector.h **** 
 108:/Applications/ARM/arm-none-eabi/include/c++/10.3.1/bits/stl_vector.h **** 	void
 109:/Applications/ARM/arm-none-eabi/include/c++/10.3.1/bits/stl_vector.h **** 	_M_copy_data(_Vector_impl_data const& __x) _GLIBCXX_NOEXCEPT
 110:/Applications/ARM/arm-none-eabi/include/c++/10.3.1/bits/stl_vector.h **** 	{
 111:/Applications/ARM/arm-none-eabi/include/c++/10.3.1/bits/stl_vector.h **** 	  _M_start = __x._M_start;
 112:/Applications/ARM/arm-none-eabi/include/c++/10.3.1/bits/stl_vector.h **** 	  _M_finish = __x._M_finish;
 113:/Applications/ARM/arm-none-eabi/include/c++/10.3.1/bits/stl_vector.h **** 	  _M_end_of_storage = __x._M_end_of_storage;
 114:/Applications/ARM/arm-none-eabi/include/c++/10.3.1/bits/stl_vector.h **** 	}
 115:/Applications/ARM/arm-none-eabi/include/c++/10.3.1/bits/stl_vector.h **** 
 116:/Applications/ARM/arm-none-eabi/include/c++/10.3.1/bits/stl_vector.h **** 	void
 117:/Applications/ARM/arm-none-eabi/include/c++/10.3.1/bits/stl_vector.h **** 	_M_swap_data(_Vector_impl_data& __x) _GLIBCXX_NOEXCEPT
 118:/Applications/ARM/arm-none-eabi/include/c++/10.3.1/bits/stl_vector.h **** 	{
 119:/Applications/ARM/arm-none-eabi/include/c++/10.3.1/bits/stl_vector.h **** 	  // Do not use std::swap(_M_start, __x._M_start), etc as it loses
 120:/Applications/ARM/arm-none-eabi/include/c++/10.3.1/bits/stl_vector.h **** 	  // information used by TBAA.
 121:/Applications/ARM/arm-none-eabi/include/c++/10.3.1/bits/stl_vector.h **** 	  _Vector_impl_data __tmp;
 122:/Applications/ARM/arm-none-eabi/include/c++/10.3.1/bits/stl_vector.h **** 	  __tmp._M_copy_data(*this);
 123:/Applications/ARM/arm-none-eabi/include/c++/10.3.1/bits/stl_vector.h **** 	  _M_copy_data(__x);
 124:/Applications/ARM/arm-none-eabi/include/c++/10.3.1/bits/stl_vector.h **** 	  __x._M_copy_data(__tmp);
 125:/Applications/ARM/arm-none-eabi/include/c++/10.3.1/bits/stl_vector.h **** 	}
 126:/Applications/ARM/arm-none-eabi/include/c++/10.3.1/bits/stl_vector.h ****       };
 127:/Applications/ARM/arm-none-eabi/include/c++/10.3.1/bits/stl_vector.h **** 
 128:/Applications/ARM/arm-none-eabi/include/c++/10.3.1/bits/stl_vector.h ****       struct _Vector_impl
 129:/Applications/ARM/arm-none-eabi/include/c++/10.3.1/bits/stl_vector.h **** 	: public _Tp_alloc_type, public _Vector_impl_data
 130:/Applications/ARM/arm-none-eabi/include/c++/10.3.1/bits/stl_vector.h ****       {
 131:/Applications/ARM/arm-none-eabi/include/c++/10.3.1/bits/stl_vector.h **** 	_Vector_impl() _GLIBCXX_NOEXCEPT_IF(
 132:/Applications/ARM/arm-none-eabi/include/c++/10.3.1/bits/stl_vector.h **** 	    is_nothrow_default_constructible<_Tp_alloc_type>::value)
 133:/Applications/ARM/arm-none-eabi/include/c++/10.3.1/bits/stl_vector.h **** 	: _Tp_alloc_type()
 134:/Applications/ARM/arm-none-eabi/include/c++/10.3.1/bits/stl_vector.h **** 	{ }
 135:/Applications/ARM/arm-none-eabi/include/c++/10.3.1/bits/stl_vector.h **** 
 136:/Applications/ARM/arm-none-eabi/include/c++/10.3.1/bits/stl_vector.h **** 	_Vector_impl(_Tp_alloc_type const& __a) _GLIBCXX_NOEXCEPT
 137:/Applications/ARM/arm-none-eabi/include/c++/10.3.1/bits/stl_vector.h **** 	: _Tp_alloc_type(__a)
 138:/Applications/ARM/arm-none-eabi/include/c++/10.3.1/bits/stl_vector.h **** 	{ }
 139:/Applications/ARM/arm-none-eabi/include/c++/10.3.1/bits/stl_vector.h **** 
 140:/Applications/ARM/arm-none-eabi/include/c++/10.3.1/bits/stl_vector.h **** #if __cplusplus >= 201103L
 141:/Applications/ARM/arm-none-eabi/include/c++/10.3.1/bits/stl_vector.h **** 	// Not defaulted, to enforce noexcept(true) even when
 142:/Applications/ARM/arm-none-eabi/include/c++/10.3.1/bits/stl_vector.h **** 	// !is_nothrow_move_constructible<_Tp_alloc_type>.
 143:/Applications/ARM/arm-none-eabi/include/c++/10.3.1/bits/stl_vector.h **** 	_Vector_impl(_Vector_impl&& __x) noexcept
 144:/Applications/ARM/arm-none-eabi/include/c++/10.3.1/bits/stl_vector.h **** 	: _Tp_alloc_type(std::move(__x)), _Vector_impl_data(std::move(__x))
 145:/Applications/ARM/arm-none-eabi/include/c++/10.3.1/bits/stl_vector.h **** 	{ }
 146:/Applications/ARM/arm-none-eabi/include/c++/10.3.1/bits/stl_vector.h **** 
 147:/Applications/ARM/arm-none-eabi/include/c++/10.3.1/bits/stl_vector.h **** 	_Vector_impl(_Tp_alloc_type&& __a) noexcept
 148:/Applications/ARM/arm-none-eabi/include/c++/10.3.1/bits/stl_vector.h **** 	: _Tp_alloc_type(std::move(__a))
 149:/Applications/ARM/arm-none-eabi/include/c++/10.3.1/bits/stl_vector.h **** 	{ }
 150:/Applications/ARM/arm-none-eabi/include/c++/10.3.1/bits/stl_vector.h **** 
 151:/Applications/ARM/arm-none-eabi/include/c++/10.3.1/bits/stl_vector.h **** 	_Vector_impl(_Tp_alloc_type&& __a, _Vector_impl&& __rv) noexcept
 152:/Applications/ARM/arm-none-eabi/include/c++/10.3.1/bits/stl_vector.h **** 	: _Tp_alloc_type(std::move(__a)), _Vector_impl_data(std::move(__rv))
 153:/Applications/ARM/arm-none-eabi/include/c++/10.3.1/bits/stl_vector.h **** 	{ }
 154:/Applications/ARM/arm-none-eabi/include/c++/10.3.1/bits/stl_vector.h **** #endif
 155:/Applications/ARM/arm-none-eabi/include/c++/10.3.1/bits/stl_vector.h **** 
 156:/Applications/ARM/arm-none-eabi/include/c++/10.3.1/bits/stl_vector.h **** #if _GLIBCXX_SANITIZE_STD_ALLOCATOR && _GLIBCXX_SANITIZE_VECTOR
 157:/Applications/ARM/arm-none-eabi/include/c++/10.3.1/bits/stl_vector.h **** 	template<typename = _Tp_alloc_type>
 158:/Applications/ARM/arm-none-eabi/include/c++/10.3.1/bits/stl_vector.h **** 	  struct _Asan
 159:/Applications/ARM/arm-none-eabi/include/c++/10.3.1/bits/stl_vector.h **** 	  {
 160:/Applications/ARM/arm-none-eabi/include/c++/10.3.1/bits/stl_vector.h **** 	    typedef typename __gnu_cxx::__alloc_traits<_Tp_alloc_type>
ARM GAS  /var/folders/fp/915b6f8s6gl4dt9rfrq38g500000gn/T//cchHy16I.s 			page 44


 161:/Applications/ARM/arm-none-eabi/include/c++/10.3.1/bits/stl_vector.h **** 	      ::size_type size_type;
 162:/Applications/ARM/arm-none-eabi/include/c++/10.3.1/bits/stl_vector.h **** 
 163:/Applications/ARM/arm-none-eabi/include/c++/10.3.1/bits/stl_vector.h **** 	    static void _S_shrink(_Vector_impl&, size_type) { }
 164:/Applications/ARM/arm-none-eabi/include/c++/10.3.1/bits/stl_vector.h **** 	    static void _S_on_dealloc(_Vector_impl&) { }
 165:/Applications/ARM/arm-none-eabi/include/c++/10.3.1/bits/stl_vector.h **** 
 166:/Applications/ARM/arm-none-eabi/include/c++/10.3.1/bits/stl_vector.h **** 	    typedef _Vector_impl& _Reinit;
 167:/Applications/ARM/arm-none-eabi/include/c++/10.3.1/bits/stl_vector.h **** 
 168:/Applications/ARM/arm-none-eabi/include/c++/10.3.1/bits/stl_vector.h **** 	    struct _Grow
 169:/Applications/ARM/arm-none-eabi/include/c++/10.3.1/bits/stl_vector.h **** 	    {
 170:/Applications/ARM/arm-none-eabi/include/c++/10.3.1/bits/stl_vector.h **** 	      _Grow(_Vector_impl&, size_type) { }
 171:/Applications/ARM/arm-none-eabi/include/c++/10.3.1/bits/stl_vector.h **** 	      void _M_grew(size_type) { }
 172:/Applications/ARM/arm-none-eabi/include/c++/10.3.1/bits/stl_vector.h **** 	    };
 173:/Applications/ARM/arm-none-eabi/include/c++/10.3.1/bits/stl_vector.h **** 	  };
 174:/Applications/ARM/arm-none-eabi/include/c++/10.3.1/bits/stl_vector.h **** 
 175:/Applications/ARM/arm-none-eabi/include/c++/10.3.1/bits/stl_vector.h **** 	// Enable ASan annotations for memory obtained from std::allocator.
 176:/Applications/ARM/arm-none-eabi/include/c++/10.3.1/bits/stl_vector.h **** 	template<typename _Up>
 177:/Applications/ARM/arm-none-eabi/include/c++/10.3.1/bits/stl_vector.h **** 	  struct _Asan<allocator<_Up> >
 178:/Applications/ARM/arm-none-eabi/include/c++/10.3.1/bits/stl_vector.h **** 	  {
 179:/Applications/ARM/arm-none-eabi/include/c++/10.3.1/bits/stl_vector.h **** 	    typedef typename __gnu_cxx::__alloc_traits<_Tp_alloc_type>
 180:/Applications/ARM/arm-none-eabi/include/c++/10.3.1/bits/stl_vector.h **** 	      ::size_type size_type;
 181:/Applications/ARM/arm-none-eabi/include/c++/10.3.1/bits/stl_vector.h **** 
 182:/Applications/ARM/arm-none-eabi/include/c++/10.3.1/bits/stl_vector.h **** 	    // Adjust ASan annotation for [_M_start, _M_end_of_storage) to
 183:/Applications/ARM/arm-none-eabi/include/c++/10.3.1/bits/stl_vector.h **** 	    // mark end of valid region as __curr instead of __prev.
 184:/Applications/ARM/arm-none-eabi/include/c++/10.3.1/bits/stl_vector.h **** 	    static void
 185:/Applications/ARM/arm-none-eabi/include/c++/10.3.1/bits/stl_vector.h **** 	    _S_adjust(_Vector_impl& __impl, pointer __prev, pointer __curr)
 186:/Applications/ARM/arm-none-eabi/include/c++/10.3.1/bits/stl_vector.h **** 	    {
 187:/Applications/ARM/arm-none-eabi/include/c++/10.3.1/bits/stl_vector.h **** 	      __sanitizer_annotate_contiguous_container(__impl._M_start,
 188:/Applications/ARM/arm-none-eabi/include/c++/10.3.1/bits/stl_vector.h **** 		  __impl._M_end_of_storage, __prev, __curr);
 189:/Applications/ARM/arm-none-eabi/include/c++/10.3.1/bits/stl_vector.h **** 	    }
 190:/Applications/ARM/arm-none-eabi/include/c++/10.3.1/bits/stl_vector.h **** 
 191:/Applications/ARM/arm-none-eabi/include/c++/10.3.1/bits/stl_vector.h **** 	    static void
 192:/Applications/ARM/arm-none-eabi/include/c++/10.3.1/bits/stl_vector.h **** 	    _S_grow(_Vector_impl& __impl, size_type __n)
 193:/Applications/ARM/arm-none-eabi/include/c++/10.3.1/bits/stl_vector.h **** 	    { _S_adjust(__impl, __impl._M_finish, __impl._M_finish + __n); }
 194:/Applications/ARM/arm-none-eabi/include/c++/10.3.1/bits/stl_vector.h **** 
 195:/Applications/ARM/arm-none-eabi/include/c++/10.3.1/bits/stl_vector.h **** 	    static void
 196:/Applications/ARM/arm-none-eabi/include/c++/10.3.1/bits/stl_vector.h **** 	    _S_shrink(_Vector_impl& __impl, size_type __n)
 197:/Applications/ARM/arm-none-eabi/include/c++/10.3.1/bits/stl_vector.h **** 	    { _S_adjust(__impl, __impl._M_finish + __n, __impl._M_finish); }
 198:/Applications/ARM/arm-none-eabi/include/c++/10.3.1/bits/stl_vector.h **** 
 199:/Applications/ARM/arm-none-eabi/include/c++/10.3.1/bits/stl_vector.h **** 	    static void
 200:/Applications/ARM/arm-none-eabi/include/c++/10.3.1/bits/stl_vector.h **** 	    _S_on_dealloc(_Vector_impl& __impl)
 201:/Applications/ARM/arm-none-eabi/include/c++/10.3.1/bits/stl_vector.h **** 	    {
 202:/Applications/ARM/arm-none-eabi/include/c++/10.3.1/bits/stl_vector.h **** 	      if (__impl._M_start)
 203:/Applications/ARM/arm-none-eabi/include/c++/10.3.1/bits/stl_vector.h **** 		_S_adjust(__impl, __impl._M_finish, __impl._M_end_of_storage);
 204:/Applications/ARM/arm-none-eabi/include/c++/10.3.1/bits/stl_vector.h **** 	    }
 205:/Applications/ARM/arm-none-eabi/include/c++/10.3.1/bits/stl_vector.h **** 
 206:/Applications/ARM/arm-none-eabi/include/c++/10.3.1/bits/stl_vector.h **** 	    // Used on reallocation to tell ASan unused capacity is invalid.
 207:/Applications/ARM/arm-none-eabi/include/c++/10.3.1/bits/stl_vector.h **** 	    struct _Reinit
 208:/Applications/ARM/arm-none-eabi/include/c++/10.3.1/bits/stl_vector.h **** 	    {
 209:/Applications/ARM/arm-none-eabi/include/c++/10.3.1/bits/stl_vector.h **** 	      explicit _Reinit(_Vector_impl& __impl) : _M_impl(__impl)
 210:/Applications/ARM/arm-none-eabi/include/c++/10.3.1/bits/stl_vector.h **** 	      {
 211:/Applications/ARM/arm-none-eabi/include/c++/10.3.1/bits/stl_vector.h **** 		// Mark unused capacity as valid again before deallocating it.
 212:/Applications/ARM/arm-none-eabi/include/c++/10.3.1/bits/stl_vector.h **** 		_S_on_dealloc(_M_impl);
 213:/Applications/ARM/arm-none-eabi/include/c++/10.3.1/bits/stl_vector.h **** 	      }
 214:/Applications/ARM/arm-none-eabi/include/c++/10.3.1/bits/stl_vector.h **** 
 215:/Applications/ARM/arm-none-eabi/include/c++/10.3.1/bits/stl_vector.h **** 	      ~_Reinit()
 216:/Applications/ARM/arm-none-eabi/include/c++/10.3.1/bits/stl_vector.h **** 	      {
 217:/Applications/ARM/arm-none-eabi/include/c++/10.3.1/bits/stl_vector.h **** 		// Mark unused capacity as invalid after reallocation.
ARM GAS  /var/folders/fp/915b6f8s6gl4dt9rfrq38g500000gn/T//cchHy16I.s 			page 45


 218:/Applications/ARM/arm-none-eabi/include/c++/10.3.1/bits/stl_vector.h **** 		if (_M_impl._M_start)
 219:/Applications/ARM/arm-none-eabi/include/c++/10.3.1/bits/stl_vector.h **** 		  _S_adjust(_M_impl, _M_impl._M_end_of_storage,
 220:/Applications/ARM/arm-none-eabi/include/c++/10.3.1/bits/stl_vector.h **** 			    _M_impl._M_finish);
 221:/Applications/ARM/arm-none-eabi/include/c++/10.3.1/bits/stl_vector.h **** 	      }
 222:/Applications/ARM/arm-none-eabi/include/c++/10.3.1/bits/stl_vector.h **** 
 223:/Applications/ARM/arm-none-eabi/include/c++/10.3.1/bits/stl_vector.h **** 	      _Vector_impl& _M_impl;
 224:/Applications/ARM/arm-none-eabi/include/c++/10.3.1/bits/stl_vector.h **** 
 225:/Applications/ARM/arm-none-eabi/include/c++/10.3.1/bits/stl_vector.h **** #if __cplusplus >= 201103L
 226:/Applications/ARM/arm-none-eabi/include/c++/10.3.1/bits/stl_vector.h **** 	      _Reinit(const _Reinit&) = delete;
 227:/Applications/ARM/arm-none-eabi/include/c++/10.3.1/bits/stl_vector.h **** 	      _Reinit& operator=(const _Reinit&) = delete;
 228:/Applications/ARM/arm-none-eabi/include/c++/10.3.1/bits/stl_vector.h **** #endif
 229:/Applications/ARM/arm-none-eabi/include/c++/10.3.1/bits/stl_vector.h **** 	    };
 230:/Applications/ARM/arm-none-eabi/include/c++/10.3.1/bits/stl_vector.h **** 
 231:/Applications/ARM/arm-none-eabi/include/c++/10.3.1/bits/stl_vector.h **** 	    // Tell ASan when unused capacity is initialized to be valid.
 232:/Applications/ARM/arm-none-eabi/include/c++/10.3.1/bits/stl_vector.h **** 	    struct _Grow
 233:/Applications/ARM/arm-none-eabi/include/c++/10.3.1/bits/stl_vector.h **** 	    {
 234:/Applications/ARM/arm-none-eabi/include/c++/10.3.1/bits/stl_vector.h **** 	      _Grow(_Vector_impl& __impl, size_type __n)
 235:/Applications/ARM/arm-none-eabi/include/c++/10.3.1/bits/stl_vector.h **** 	      : _M_impl(__impl), _M_n(__n)
 236:/Applications/ARM/arm-none-eabi/include/c++/10.3.1/bits/stl_vector.h **** 	      { _S_grow(_M_impl, __n); }
 237:/Applications/ARM/arm-none-eabi/include/c++/10.3.1/bits/stl_vector.h **** 
 238:/Applications/ARM/arm-none-eabi/include/c++/10.3.1/bits/stl_vector.h **** 	      ~_Grow() { if (_M_n) _S_shrink(_M_impl, _M_n); }
 239:/Applications/ARM/arm-none-eabi/include/c++/10.3.1/bits/stl_vector.h **** 
 240:/Applications/ARM/arm-none-eabi/include/c++/10.3.1/bits/stl_vector.h **** 	      void _M_grew(size_type __n) { _M_n -= __n; }
 241:/Applications/ARM/arm-none-eabi/include/c++/10.3.1/bits/stl_vector.h **** 
 242:/Applications/ARM/arm-none-eabi/include/c++/10.3.1/bits/stl_vector.h **** #if __cplusplus >= 201103L
 243:/Applications/ARM/arm-none-eabi/include/c++/10.3.1/bits/stl_vector.h **** 	      _Grow(const _Grow&) = delete;
 244:/Applications/ARM/arm-none-eabi/include/c++/10.3.1/bits/stl_vector.h **** 	      _Grow& operator=(const _Grow&) = delete;
 245:/Applications/ARM/arm-none-eabi/include/c++/10.3.1/bits/stl_vector.h **** #endif
 246:/Applications/ARM/arm-none-eabi/include/c++/10.3.1/bits/stl_vector.h **** 	    private:
 247:/Applications/ARM/arm-none-eabi/include/c++/10.3.1/bits/stl_vector.h **** 	      _Vector_impl& _M_impl;
 248:/Applications/ARM/arm-none-eabi/include/c++/10.3.1/bits/stl_vector.h **** 	      size_type _M_n;
 249:/Applications/ARM/arm-none-eabi/include/c++/10.3.1/bits/stl_vector.h **** 	    };
 250:/Applications/ARM/arm-none-eabi/include/c++/10.3.1/bits/stl_vector.h **** 	  };
 251:/Applications/ARM/arm-none-eabi/include/c++/10.3.1/bits/stl_vector.h **** 
 252:/Applications/ARM/arm-none-eabi/include/c++/10.3.1/bits/stl_vector.h **** #define _GLIBCXX_ASAN_ANNOTATE_REINIT \
 253:/Applications/ARM/arm-none-eabi/include/c++/10.3.1/bits/stl_vector.h ****   typename _Base::_Vector_impl::template _Asan<>::_Reinit const \
 254:/Applications/ARM/arm-none-eabi/include/c++/10.3.1/bits/stl_vector.h **** 	__attribute__((__unused__)) __reinit_guard(this->_M_impl)
 255:/Applications/ARM/arm-none-eabi/include/c++/10.3.1/bits/stl_vector.h **** #define _GLIBCXX_ASAN_ANNOTATE_GROW(n) \
 256:/Applications/ARM/arm-none-eabi/include/c++/10.3.1/bits/stl_vector.h ****   typename _Base::_Vector_impl::template _Asan<>::_Grow \
 257:/Applications/ARM/arm-none-eabi/include/c++/10.3.1/bits/stl_vector.h **** 	__attribute__((__unused__)) __grow_guard(this->_M_impl, (n))
 258:/Applications/ARM/arm-none-eabi/include/c++/10.3.1/bits/stl_vector.h **** #define _GLIBCXX_ASAN_ANNOTATE_GREW(n) __grow_guard._M_grew(n)
 259:/Applications/ARM/arm-none-eabi/include/c++/10.3.1/bits/stl_vector.h **** #define _GLIBCXX_ASAN_ANNOTATE_SHRINK(n) \
 260:/Applications/ARM/arm-none-eabi/include/c++/10.3.1/bits/stl_vector.h ****   _Base::_Vector_impl::template _Asan<>::_S_shrink(this->_M_impl, n)
 261:/Applications/ARM/arm-none-eabi/include/c++/10.3.1/bits/stl_vector.h **** #define _GLIBCXX_ASAN_ANNOTATE_BEFORE_DEALLOC \
 262:/Applications/ARM/arm-none-eabi/include/c++/10.3.1/bits/stl_vector.h ****   _Base::_Vector_impl::template _Asan<>::_S_on_dealloc(this->_M_impl)
 263:/Applications/ARM/arm-none-eabi/include/c++/10.3.1/bits/stl_vector.h **** #else // ! (_GLIBCXX_SANITIZE_STD_ALLOCATOR && _GLIBCXX_SANITIZE_VECTOR)
 264:/Applications/ARM/arm-none-eabi/include/c++/10.3.1/bits/stl_vector.h **** #define _GLIBCXX_ASAN_ANNOTATE_REINIT
 265:/Applications/ARM/arm-none-eabi/include/c++/10.3.1/bits/stl_vector.h **** #define _GLIBCXX_ASAN_ANNOTATE_GROW(n)
 266:/Applications/ARM/arm-none-eabi/include/c++/10.3.1/bits/stl_vector.h **** #define _GLIBCXX_ASAN_ANNOTATE_GREW(n)
 267:/Applications/ARM/arm-none-eabi/include/c++/10.3.1/bits/stl_vector.h **** #define _GLIBCXX_ASAN_ANNOTATE_SHRINK(n)
 268:/Applications/ARM/arm-none-eabi/include/c++/10.3.1/bits/stl_vector.h **** #define _GLIBCXX_ASAN_ANNOTATE_BEFORE_DEALLOC
 269:/Applications/ARM/arm-none-eabi/include/c++/10.3.1/bits/stl_vector.h **** #endif // _GLIBCXX_SANITIZE_STD_ALLOCATOR && _GLIBCXX_SANITIZE_VECTOR
 270:/Applications/ARM/arm-none-eabi/include/c++/10.3.1/bits/stl_vector.h ****       };
 271:/Applications/ARM/arm-none-eabi/include/c++/10.3.1/bits/stl_vector.h **** 
 272:/Applications/ARM/arm-none-eabi/include/c++/10.3.1/bits/stl_vector.h ****     public:
 273:/Applications/ARM/arm-none-eabi/include/c++/10.3.1/bits/stl_vector.h ****       typedef _Alloc allocator_type;
 274:/Applications/ARM/arm-none-eabi/include/c++/10.3.1/bits/stl_vector.h **** 
ARM GAS  /var/folders/fp/915b6f8s6gl4dt9rfrq38g500000gn/T//cchHy16I.s 			page 46


 275:/Applications/ARM/arm-none-eabi/include/c++/10.3.1/bits/stl_vector.h ****       _Tp_alloc_type&
 276:/Applications/ARM/arm-none-eabi/include/c++/10.3.1/bits/stl_vector.h ****       _M_get_Tp_allocator() _GLIBCXX_NOEXCEPT
 277:/Applications/ARM/arm-none-eabi/include/c++/10.3.1/bits/stl_vector.h ****       { return this->_M_impl; }
 278:/Applications/ARM/arm-none-eabi/include/c++/10.3.1/bits/stl_vector.h **** 
 279:/Applications/ARM/arm-none-eabi/include/c++/10.3.1/bits/stl_vector.h ****       const _Tp_alloc_type&
 280:/Applications/ARM/arm-none-eabi/include/c++/10.3.1/bits/stl_vector.h ****       _M_get_Tp_allocator() const _GLIBCXX_NOEXCEPT
 281:/Applications/ARM/arm-none-eabi/include/c++/10.3.1/bits/stl_vector.h ****       { return this->_M_impl; }
 282:/Applications/ARM/arm-none-eabi/include/c++/10.3.1/bits/stl_vector.h **** 
 283:/Applications/ARM/arm-none-eabi/include/c++/10.3.1/bits/stl_vector.h ****       allocator_type
 284:/Applications/ARM/arm-none-eabi/include/c++/10.3.1/bits/stl_vector.h ****       get_allocator() const _GLIBCXX_NOEXCEPT
 285:/Applications/ARM/arm-none-eabi/include/c++/10.3.1/bits/stl_vector.h ****       { return allocator_type(_M_get_Tp_allocator()); }
 286:/Applications/ARM/arm-none-eabi/include/c++/10.3.1/bits/stl_vector.h **** 
 287:/Applications/ARM/arm-none-eabi/include/c++/10.3.1/bits/stl_vector.h **** #if __cplusplus >= 201103L
 288:/Applications/ARM/arm-none-eabi/include/c++/10.3.1/bits/stl_vector.h ****       _Vector_base() = default;
 289:/Applications/ARM/arm-none-eabi/include/c++/10.3.1/bits/stl_vector.h **** #else
 290:/Applications/ARM/arm-none-eabi/include/c++/10.3.1/bits/stl_vector.h ****       _Vector_base() { }
 291:/Applications/ARM/arm-none-eabi/include/c++/10.3.1/bits/stl_vector.h **** #endif
 292:/Applications/ARM/arm-none-eabi/include/c++/10.3.1/bits/stl_vector.h **** 
 293:/Applications/ARM/arm-none-eabi/include/c++/10.3.1/bits/stl_vector.h ****       _Vector_base(const allocator_type& __a) _GLIBCXX_NOEXCEPT
 294:/Applications/ARM/arm-none-eabi/include/c++/10.3.1/bits/stl_vector.h ****       : _M_impl(__a) { }
 295:/Applications/ARM/arm-none-eabi/include/c++/10.3.1/bits/stl_vector.h **** 
 296:/Applications/ARM/arm-none-eabi/include/c++/10.3.1/bits/stl_vector.h ****       // Kept for ABI compatibility.
 297:/Applications/ARM/arm-none-eabi/include/c++/10.3.1/bits/stl_vector.h **** #if !_GLIBCXX_INLINE_VERSION
 298:/Applications/ARM/arm-none-eabi/include/c++/10.3.1/bits/stl_vector.h ****       _Vector_base(size_t __n)
 299:/Applications/ARM/arm-none-eabi/include/c++/10.3.1/bits/stl_vector.h ****       : _M_impl()
 300:/Applications/ARM/arm-none-eabi/include/c++/10.3.1/bits/stl_vector.h ****       { _M_create_storage(__n); }
 301:/Applications/ARM/arm-none-eabi/include/c++/10.3.1/bits/stl_vector.h **** #endif
 302:/Applications/ARM/arm-none-eabi/include/c++/10.3.1/bits/stl_vector.h **** 
 303:/Applications/ARM/arm-none-eabi/include/c++/10.3.1/bits/stl_vector.h ****       _Vector_base(size_t __n, const allocator_type& __a)
 304:/Applications/ARM/arm-none-eabi/include/c++/10.3.1/bits/stl_vector.h ****       : _M_impl(__a)
 305:/Applications/ARM/arm-none-eabi/include/c++/10.3.1/bits/stl_vector.h ****       { _M_create_storage(__n); }
 306:/Applications/ARM/arm-none-eabi/include/c++/10.3.1/bits/stl_vector.h **** 
 307:/Applications/ARM/arm-none-eabi/include/c++/10.3.1/bits/stl_vector.h **** #if __cplusplus >= 201103L
 308:/Applications/ARM/arm-none-eabi/include/c++/10.3.1/bits/stl_vector.h ****       _Vector_base(_Vector_base&&) = default;
 309:/Applications/ARM/arm-none-eabi/include/c++/10.3.1/bits/stl_vector.h **** 
 310:/Applications/ARM/arm-none-eabi/include/c++/10.3.1/bits/stl_vector.h ****       // Kept for ABI compatibility.
 311:/Applications/ARM/arm-none-eabi/include/c++/10.3.1/bits/stl_vector.h **** # if !_GLIBCXX_INLINE_VERSION
 312:/Applications/ARM/arm-none-eabi/include/c++/10.3.1/bits/stl_vector.h ****       _Vector_base(_Tp_alloc_type&& __a) noexcept
 313:/Applications/ARM/arm-none-eabi/include/c++/10.3.1/bits/stl_vector.h ****       : _M_impl(std::move(__a)) { }
 314:/Applications/ARM/arm-none-eabi/include/c++/10.3.1/bits/stl_vector.h **** 
 315:/Applications/ARM/arm-none-eabi/include/c++/10.3.1/bits/stl_vector.h ****       _Vector_base(_Vector_base&& __x, const allocator_type& __a)
 316:/Applications/ARM/arm-none-eabi/include/c++/10.3.1/bits/stl_vector.h ****       : _M_impl(__a)
 317:/Applications/ARM/arm-none-eabi/include/c++/10.3.1/bits/stl_vector.h ****       {
 318:/Applications/ARM/arm-none-eabi/include/c++/10.3.1/bits/stl_vector.h **** 	if (__x.get_allocator() == __a)
 319:/Applications/ARM/arm-none-eabi/include/c++/10.3.1/bits/stl_vector.h **** 	  this->_M_impl._M_swap_data(__x._M_impl);
 320:/Applications/ARM/arm-none-eabi/include/c++/10.3.1/bits/stl_vector.h **** 	else
 321:/Applications/ARM/arm-none-eabi/include/c++/10.3.1/bits/stl_vector.h **** 	  {
 322:/Applications/ARM/arm-none-eabi/include/c++/10.3.1/bits/stl_vector.h **** 	    size_t __n = __x._M_impl._M_finish - __x._M_impl._M_start;
 323:/Applications/ARM/arm-none-eabi/include/c++/10.3.1/bits/stl_vector.h **** 	    _M_create_storage(__n);
 324:/Applications/ARM/arm-none-eabi/include/c++/10.3.1/bits/stl_vector.h **** 	  }
 325:/Applications/ARM/arm-none-eabi/include/c++/10.3.1/bits/stl_vector.h ****       }
 326:/Applications/ARM/arm-none-eabi/include/c++/10.3.1/bits/stl_vector.h **** # endif
 327:/Applications/ARM/arm-none-eabi/include/c++/10.3.1/bits/stl_vector.h **** 
 328:/Applications/ARM/arm-none-eabi/include/c++/10.3.1/bits/stl_vector.h ****       _Vector_base(const allocator_type& __a, _Vector_base&& __x)
 329:/Applications/ARM/arm-none-eabi/include/c++/10.3.1/bits/stl_vector.h ****       : _M_impl(_Tp_alloc_type(__a), std::move(__x._M_impl))
 330:/Applications/ARM/arm-none-eabi/include/c++/10.3.1/bits/stl_vector.h ****       { }
 331:/Applications/ARM/arm-none-eabi/include/c++/10.3.1/bits/stl_vector.h **** #endif
ARM GAS  /var/folders/fp/915b6f8s6gl4dt9rfrq38g500000gn/T//cchHy16I.s 			page 47


 332:/Applications/ARM/arm-none-eabi/include/c++/10.3.1/bits/stl_vector.h **** 
 333:/Applications/ARM/arm-none-eabi/include/c++/10.3.1/bits/stl_vector.h ****       ~_Vector_base() _GLIBCXX_NOEXCEPT
 334:/Applications/ARM/arm-none-eabi/include/c++/10.3.1/bits/stl_vector.h ****       {
 335:/Applications/ARM/arm-none-eabi/include/c++/10.3.1/bits/stl_vector.h **** 	_M_deallocate(_M_impl._M_start,
 336:/Applications/ARM/arm-none-eabi/include/c++/10.3.1/bits/stl_vector.h **** 		      _M_impl._M_end_of_storage - _M_impl._M_start);
 337:/Applications/ARM/arm-none-eabi/include/c++/10.3.1/bits/stl_vector.h ****       }
 338:/Applications/ARM/arm-none-eabi/include/c++/10.3.1/bits/stl_vector.h **** 
 339:/Applications/ARM/arm-none-eabi/include/c++/10.3.1/bits/stl_vector.h ****     public:
 340:/Applications/ARM/arm-none-eabi/include/c++/10.3.1/bits/stl_vector.h ****       _Vector_impl _M_impl;
 341:/Applications/ARM/arm-none-eabi/include/c++/10.3.1/bits/stl_vector.h **** 
 342:/Applications/ARM/arm-none-eabi/include/c++/10.3.1/bits/stl_vector.h ****       pointer
 343:/Applications/ARM/arm-none-eabi/include/c++/10.3.1/bits/stl_vector.h ****       _M_allocate(size_t __n)
 344:/Applications/ARM/arm-none-eabi/include/c++/10.3.1/bits/stl_vector.h ****       {
 345:/Applications/ARM/arm-none-eabi/include/c++/10.3.1/bits/stl_vector.h **** 	typedef __gnu_cxx::__alloc_traits<_Tp_alloc_type> _Tr;
 346:/Applications/ARM/arm-none-eabi/include/c++/10.3.1/bits/stl_vector.h **** 	return __n != 0 ? _Tr::allocate(_M_impl, __n) : pointer();
 347:/Applications/ARM/arm-none-eabi/include/c++/10.3.1/bits/stl_vector.h ****       }
 348:/Applications/ARM/arm-none-eabi/include/c++/10.3.1/bits/stl_vector.h **** 
 349:/Applications/ARM/arm-none-eabi/include/c++/10.3.1/bits/stl_vector.h ****       void
 350:/Applications/ARM/arm-none-eabi/include/c++/10.3.1/bits/stl_vector.h ****       _M_deallocate(pointer __p, size_t __n)
 351:/Applications/ARM/arm-none-eabi/include/c++/10.3.1/bits/stl_vector.h ****       {
 352:/Applications/ARM/arm-none-eabi/include/c++/10.3.1/bits/stl_vector.h **** 	typedef __gnu_cxx::__alloc_traits<_Tp_alloc_type> _Tr;
 353:/Applications/ARM/arm-none-eabi/include/c++/10.3.1/bits/stl_vector.h **** 	if (__p)
 354:/Applications/ARM/arm-none-eabi/include/c++/10.3.1/bits/stl_vector.h **** 	  _Tr::deallocate(_M_impl, __p, __n);
 355:/Applications/ARM/arm-none-eabi/include/c++/10.3.1/bits/stl_vector.h ****       }
 356:/Applications/ARM/arm-none-eabi/include/c++/10.3.1/bits/stl_vector.h **** 
 357:/Applications/ARM/arm-none-eabi/include/c++/10.3.1/bits/stl_vector.h ****     protected:
 358:/Applications/ARM/arm-none-eabi/include/c++/10.3.1/bits/stl_vector.h ****       void
 359:/Applications/ARM/arm-none-eabi/include/c++/10.3.1/bits/stl_vector.h ****       _M_create_storage(size_t __n)
 360:/Applications/ARM/arm-none-eabi/include/c++/10.3.1/bits/stl_vector.h ****       {
 361:/Applications/ARM/arm-none-eabi/include/c++/10.3.1/bits/stl_vector.h **** 	this->_M_impl._M_start = this->_M_allocate(__n);
 362:/Applications/ARM/arm-none-eabi/include/c++/10.3.1/bits/stl_vector.h **** 	this->_M_impl._M_finish = this->_M_impl._M_start;
 363:/Applications/ARM/arm-none-eabi/include/c++/10.3.1/bits/stl_vector.h **** 	this->_M_impl._M_end_of_storage = this->_M_impl._M_start + __n;
 364:/Applications/ARM/arm-none-eabi/include/c++/10.3.1/bits/stl_vector.h ****       }
 365:/Applications/ARM/arm-none-eabi/include/c++/10.3.1/bits/stl_vector.h ****     };
 366:/Applications/ARM/arm-none-eabi/include/c++/10.3.1/bits/stl_vector.h **** 
 367:/Applications/ARM/arm-none-eabi/include/c++/10.3.1/bits/stl_vector.h ****   /**
 368:/Applications/ARM/arm-none-eabi/include/c++/10.3.1/bits/stl_vector.h ****    *  @brief A standard container which offers fixed time access to
 369:/Applications/ARM/arm-none-eabi/include/c++/10.3.1/bits/stl_vector.h ****    *  individual elements in any order.
 370:/Applications/ARM/arm-none-eabi/include/c++/10.3.1/bits/stl_vector.h ****    *
 371:/Applications/ARM/arm-none-eabi/include/c++/10.3.1/bits/stl_vector.h ****    *  @ingroup sequences
 372:/Applications/ARM/arm-none-eabi/include/c++/10.3.1/bits/stl_vector.h ****    *
 373:/Applications/ARM/arm-none-eabi/include/c++/10.3.1/bits/stl_vector.h ****    *  @tparam _Tp  Type of element.
 374:/Applications/ARM/arm-none-eabi/include/c++/10.3.1/bits/stl_vector.h ****    *  @tparam _Alloc  Allocator type, defaults to allocator<_Tp>.
 375:/Applications/ARM/arm-none-eabi/include/c++/10.3.1/bits/stl_vector.h ****    *
 376:/Applications/ARM/arm-none-eabi/include/c++/10.3.1/bits/stl_vector.h ****    *  Meets the requirements of a <a href="tables.html#65">container</a>, a
 377:/Applications/ARM/arm-none-eabi/include/c++/10.3.1/bits/stl_vector.h ****    *  <a href="tables.html#66">reversible container</a>, and a
 378:/Applications/ARM/arm-none-eabi/include/c++/10.3.1/bits/stl_vector.h ****    *  <a href="tables.html#67">sequence</a>, including the
 379:/Applications/ARM/arm-none-eabi/include/c++/10.3.1/bits/stl_vector.h ****    *  <a href="tables.html#68">optional sequence requirements</a> with the
 380:/Applications/ARM/arm-none-eabi/include/c++/10.3.1/bits/stl_vector.h ****    *  %exception of @c push_front and @c pop_front.
 381:/Applications/ARM/arm-none-eabi/include/c++/10.3.1/bits/stl_vector.h ****    *
 382:/Applications/ARM/arm-none-eabi/include/c++/10.3.1/bits/stl_vector.h ****    *  In some terminology a %vector can be described as a dynamic
 383:/Applications/ARM/arm-none-eabi/include/c++/10.3.1/bits/stl_vector.h ****    *  C-style array, it offers fast and efficient access to individual
 384:/Applications/ARM/arm-none-eabi/include/c++/10.3.1/bits/stl_vector.h ****    *  elements in any order and saves the user from worrying about
 385:/Applications/ARM/arm-none-eabi/include/c++/10.3.1/bits/stl_vector.h ****    *  memory and size allocation.  Subscripting ( @c [] ) access is
 386:/Applications/ARM/arm-none-eabi/include/c++/10.3.1/bits/stl_vector.h ****    *  also provided as with C-style arrays.
 387:/Applications/ARM/arm-none-eabi/include/c++/10.3.1/bits/stl_vector.h ****   */
 388:/Applications/ARM/arm-none-eabi/include/c++/10.3.1/bits/stl_vector.h ****   template<typename _Tp, typename _Alloc = std::allocator<_Tp> >
ARM GAS  /var/folders/fp/915b6f8s6gl4dt9rfrq38g500000gn/T//cchHy16I.s 			page 48


 389:/Applications/ARM/arm-none-eabi/include/c++/10.3.1/bits/stl_vector.h ****     class vector : protected _Vector_base<_Tp, _Alloc>
 390:/Applications/ARM/arm-none-eabi/include/c++/10.3.1/bits/stl_vector.h ****     {
 391:/Applications/ARM/arm-none-eabi/include/c++/10.3.1/bits/stl_vector.h **** #ifdef _GLIBCXX_CONCEPT_CHECKS
 392:/Applications/ARM/arm-none-eabi/include/c++/10.3.1/bits/stl_vector.h ****       // Concept requirements.
 393:/Applications/ARM/arm-none-eabi/include/c++/10.3.1/bits/stl_vector.h ****       typedef typename _Alloc::value_type		_Alloc_value_type;
 394:/Applications/ARM/arm-none-eabi/include/c++/10.3.1/bits/stl_vector.h **** # if __cplusplus < 201103L
 395:/Applications/ARM/arm-none-eabi/include/c++/10.3.1/bits/stl_vector.h ****       __glibcxx_class_requires(_Tp, _SGIAssignableConcept)
 396:/Applications/ARM/arm-none-eabi/include/c++/10.3.1/bits/stl_vector.h **** # endif
 397:/Applications/ARM/arm-none-eabi/include/c++/10.3.1/bits/stl_vector.h ****       __glibcxx_class_requires2(_Tp, _Alloc_value_type, _SameTypeConcept)
 398:/Applications/ARM/arm-none-eabi/include/c++/10.3.1/bits/stl_vector.h **** #endif
 399:/Applications/ARM/arm-none-eabi/include/c++/10.3.1/bits/stl_vector.h **** 
 400:/Applications/ARM/arm-none-eabi/include/c++/10.3.1/bits/stl_vector.h **** #if __cplusplus >= 201103L
 401:/Applications/ARM/arm-none-eabi/include/c++/10.3.1/bits/stl_vector.h ****       static_assert(is_same<typename remove_cv<_Tp>::type, _Tp>::value,
 402:/Applications/ARM/arm-none-eabi/include/c++/10.3.1/bits/stl_vector.h **** 	  "std::vector must have a non-const, non-volatile value_type");
 403:/Applications/ARM/arm-none-eabi/include/c++/10.3.1/bits/stl_vector.h **** # if __cplusplus > 201703L || defined __STRICT_ANSI__
 404:/Applications/ARM/arm-none-eabi/include/c++/10.3.1/bits/stl_vector.h ****       static_assert(is_same<typename _Alloc::value_type, _Tp>::value,
 405:/Applications/ARM/arm-none-eabi/include/c++/10.3.1/bits/stl_vector.h **** 	  "std::vector must have the same value_type as its allocator");
 406:/Applications/ARM/arm-none-eabi/include/c++/10.3.1/bits/stl_vector.h **** # endif
 407:/Applications/ARM/arm-none-eabi/include/c++/10.3.1/bits/stl_vector.h **** #endif
 408:/Applications/ARM/arm-none-eabi/include/c++/10.3.1/bits/stl_vector.h **** 
 409:/Applications/ARM/arm-none-eabi/include/c++/10.3.1/bits/stl_vector.h ****       typedef _Vector_base<_Tp, _Alloc>			_Base;
 410:/Applications/ARM/arm-none-eabi/include/c++/10.3.1/bits/stl_vector.h ****       typedef typename _Base::_Tp_alloc_type		_Tp_alloc_type;
 411:/Applications/ARM/arm-none-eabi/include/c++/10.3.1/bits/stl_vector.h ****       typedef __gnu_cxx::__alloc_traits<_Tp_alloc_type>	_Alloc_traits;
 412:/Applications/ARM/arm-none-eabi/include/c++/10.3.1/bits/stl_vector.h **** 
 413:/Applications/ARM/arm-none-eabi/include/c++/10.3.1/bits/stl_vector.h ****     public:
 414:/Applications/ARM/arm-none-eabi/include/c++/10.3.1/bits/stl_vector.h ****       typedef _Tp					value_type;
 415:/Applications/ARM/arm-none-eabi/include/c++/10.3.1/bits/stl_vector.h ****       typedef typename _Base::pointer			pointer;
 416:/Applications/ARM/arm-none-eabi/include/c++/10.3.1/bits/stl_vector.h ****       typedef typename _Alloc_traits::const_pointer	const_pointer;
 417:/Applications/ARM/arm-none-eabi/include/c++/10.3.1/bits/stl_vector.h ****       typedef typename _Alloc_traits::reference		reference;
 418:/Applications/ARM/arm-none-eabi/include/c++/10.3.1/bits/stl_vector.h ****       typedef typename _Alloc_traits::const_reference	const_reference;
 419:/Applications/ARM/arm-none-eabi/include/c++/10.3.1/bits/stl_vector.h ****       typedef __gnu_cxx::__normal_iterator<pointer, vector> iterator;
 420:/Applications/ARM/arm-none-eabi/include/c++/10.3.1/bits/stl_vector.h ****       typedef __gnu_cxx::__normal_iterator<const_pointer, vector>
 421:/Applications/ARM/arm-none-eabi/include/c++/10.3.1/bits/stl_vector.h ****       const_iterator;
 422:/Applications/ARM/arm-none-eabi/include/c++/10.3.1/bits/stl_vector.h ****       typedef std::reverse_iterator<const_iterator>	const_reverse_iterator;
 423:/Applications/ARM/arm-none-eabi/include/c++/10.3.1/bits/stl_vector.h ****       typedef std::reverse_iterator<iterator>		reverse_iterator;
 424:/Applications/ARM/arm-none-eabi/include/c++/10.3.1/bits/stl_vector.h ****       typedef size_t					size_type;
 425:/Applications/ARM/arm-none-eabi/include/c++/10.3.1/bits/stl_vector.h ****       typedef ptrdiff_t					difference_type;
 426:/Applications/ARM/arm-none-eabi/include/c++/10.3.1/bits/stl_vector.h ****       typedef _Alloc					allocator_type;
 427:/Applications/ARM/arm-none-eabi/include/c++/10.3.1/bits/stl_vector.h **** 
 428:/Applications/ARM/arm-none-eabi/include/c++/10.3.1/bits/stl_vector.h ****     private:
 429:/Applications/ARM/arm-none-eabi/include/c++/10.3.1/bits/stl_vector.h **** #if __cplusplus >= 201103L
 430:/Applications/ARM/arm-none-eabi/include/c++/10.3.1/bits/stl_vector.h ****       static constexpr bool
 431:/Applications/ARM/arm-none-eabi/include/c++/10.3.1/bits/stl_vector.h ****       _S_nothrow_relocate(true_type)
 432:/Applications/ARM/arm-none-eabi/include/c++/10.3.1/bits/stl_vector.h ****       {
 433:/Applications/ARM/arm-none-eabi/include/c++/10.3.1/bits/stl_vector.h **** 	return noexcept(std::__relocate_a(std::declval<pointer>(),
 434:/Applications/ARM/arm-none-eabi/include/c++/10.3.1/bits/stl_vector.h **** 					  std::declval<pointer>(),
 435:/Applications/ARM/arm-none-eabi/include/c++/10.3.1/bits/stl_vector.h **** 					  std::declval<pointer>(),
 436:/Applications/ARM/arm-none-eabi/include/c++/10.3.1/bits/stl_vector.h **** 					  std::declval<_Tp_alloc_type&>()));
 437:/Applications/ARM/arm-none-eabi/include/c++/10.3.1/bits/stl_vector.h ****       }
 438:/Applications/ARM/arm-none-eabi/include/c++/10.3.1/bits/stl_vector.h **** 
 439:/Applications/ARM/arm-none-eabi/include/c++/10.3.1/bits/stl_vector.h ****       static constexpr bool
 440:/Applications/ARM/arm-none-eabi/include/c++/10.3.1/bits/stl_vector.h ****       _S_nothrow_relocate(false_type)
 441:/Applications/ARM/arm-none-eabi/include/c++/10.3.1/bits/stl_vector.h ****       { return false; }
 442:/Applications/ARM/arm-none-eabi/include/c++/10.3.1/bits/stl_vector.h **** 
 443:/Applications/ARM/arm-none-eabi/include/c++/10.3.1/bits/stl_vector.h ****       static constexpr bool
 444:/Applications/ARM/arm-none-eabi/include/c++/10.3.1/bits/stl_vector.h ****       _S_use_relocate()
 445:/Applications/ARM/arm-none-eabi/include/c++/10.3.1/bits/stl_vector.h ****       {
ARM GAS  /var/folders/fp/915b6f8s6gl4dt9rfrq38g500000gn/T//cchHy16I.s 			page 49


 446:/Applications/ARM/arm-none-eabi/include/c++/10.3.1/bits/stl_vector.h **** 	// Instantiating std::__relocate_a might cause an error outside the
 447:/Applications/ARM/arm-none-eabi/include/c++/10.3.1/bits/stl_vector.h **** 	// immediate context (in __relocate_object_a's noexcept-specifier),
 448:/Applications/ARM/arm-none-eabi/include/c++/10.3.1/bits/stl_vector.h **** 	// so only do it if we know the type can be move-inserted into *this.
 449:/Applications/ARM/arm-none-eabi/include/c++/10.3.1/bits/stl_vector.h **** 	return _S_nothrow_relocate(__is_move_insertable<_Tp_alloc_type>{});
 450:/Applications/ARM/arm-none-eabi/include/c++/10.3.1/bits/stl_vector.h ****       }
 451:/Applications/ARM/arm-none-eabi/include/c++/10.3.1/bits/stl_vector.h **** 
 452:/Applications/ARM/arm-none-eabi/include/c++/10.3.1/bits/stl_vector.h ****       static pointer
 453:/Applications/ARM/arm-none-eabi/include/c++/10.3.1/bits/stl_vector.h ****       _S_do_relocate(pointer __first, pointer __last, pointer __result,
 454:/Applications/ARM/arm-none-eabi/include/c++/10.3.1/bits/stl_vector.h **** 		     _Tp_alloc_type& __alloc, true_type) noexcept
 455:/Applications/ARM/arm-none-eabi/include/c++/10.3.1/bits/stl_vector.h ****       {
 456:/Applications/ARM/arm-none-eabi/include/c++/10.3.1/bits/stl_vector.h **** 	return std::__relocate_a(__first, __last, __result, __alloc);
 457:/Applications/ARM/arm-none-eabi/include/c++/10.3.1/bits/stl_vector.h ****       }
 458:/Applications/ARM/arm-none-eabi/include/c++/10.3.1/bits/stl_vector.h **** 
 459:/Applications/ARM/arm-none-eabi/include/c++/10.3.1/bits/stl_vector.h ****       static pointer
 460:/Applications/ARM/arm-none-eabi/include/c++/10.3.1/bits/stl_vector.h ****       _S_do_relocate(pointer, pointer, pointer __result,
 461:/Applications/ARM/arm-none-eabi/include/c++/10.3.1/bits/stl_vector.h **** 		     _Tp_alloc_type&, false_type) noexcept
 462:/Applications/ARM/arm-none-eabi/include/c++/10.3.1/bits/stl_vector.h ****       { return __result; }
 463:/Applications/ARM/arm-none-eabi/include/c++/10.3.1/bits/stl_vector.h **** 
 464:/Applications/ARM/arm-none-eabi/include/c++/10.3.1/bits/stl_vector.h ****       static pointer
 465:/Applications/ARM/arm-none-eabi/include/c++/10.3.1/bits/stl_vector.h ****       _S_relocate(pointer __first, pointer __last, pointer __result,
 466:/Applications/ARM/arm-none-eabi/include/c++/10.3.1/bits/stl_vector.h **** 		  _Tp_alloc_type& __alloc) noexcept
 467:/Applications/ARM/arm-none-eabi/include/c++/10.3.1/bits/stl_vector.h ****       {
 468:/Applications/ARM/arm-none-eabi/include/c++/10.3.1/bits/stl_vector.h **** 	using __do_it = __bool_constant<_S_use_relocate()>;
 469:/Applications/ARM/arm-none-eabi/include/c++/10.3.1/bits/stl_vector.h **** 	return _S_do_relocate(__first, __last, __result, __alloc, __do_it{});
 470:/Applications/ARM/arm-none-eabi/include/c++/10.3.1/bits/stl_vector.h ****       }
 471:/Applications/ARM/arm-none-eabi/include/c++/10.3.1/bits/stl_vector.h **** #endif // C++11
 472:/Applications/ARM/arm-none-eabi/include/c++/10.3.1/bits/stl_vector.h **** 
 473:/Applications/ARM/arm-none-eabi/include/c++/10.3.1/bits/stl_vector.h ****     protected:
 474:/Applications/ARM/arm-none-eabi/include/c++/10.3.1/bits/stl_vector.h ****       using _Base::_M_allocate;
 475:/Applications/ARM/arm-none-eabi/include/c++/10.3.1/bits/stl_vector.h ****       using _Base::_M_deallocate;
 476:/Applications/ARM/arm-none-eabi/include/c++/10.3.1/bits/stl_vector.h ****       using _Base::_M_impl;
 477:/Applications/ARM/arm-none-eabi/include/c++/10.3.1/bits/stl_vector.h ****       using _Base::_M_get_Tp_allocator;
 478:/Applications/ARM/arm-none-eabi/include/c++/10.3.1/bits/stl_vector.h **** 
 479:/Applications/ARM/arm-none-eabi/include/c++/10.3.1/bits/stl_vector.h ****     public:
 480:/Applications/ARM/arm-none-eabi/include/c++/10.3.1/bits/stl_vector.h ****       // [23.2.4.1] construct/copy/destroy
 481:/Applications/ARM/arm-none-eabi/include/c++/10.3.1/bits/stl_vector.h ****       // (assign() and get_allocator() are also listed in this section)
 482:/Applications/ARM/arm-none-eabi/include/c++/10.3.1/bits/stl_vector.h **** 
 483:/Applications/ARM/arm-none-eabi/include/c++/10.3.1/bits/stl_vector.h ****       /**
 484:/Applications/ARM/arm-none-eabi/include/c++/10.3.1/bits/stl_vector.h ****        *  @brief  Creates a %vector with no elements.
 485:/Applications/ARM/arm-none-eabi/include/c++/10.3.1/bits/stl_vector.h ****        */
 486:/Applications/ARM/arm-none-eabi/include/c++/10.3.1/bits/stl_vector.h **** #if __cplusplus >= 201103L
 487:/Applications/ARM/arm-none-eabi/include/c++/10.3.1/bits/stl_vector.h ****       vector() = default;
 488:/Applications/ARM/arm-none-eabi/include/c++/10.3.1/bits/stl_vector.h **** #else
 489:/Applications/ARM/arm-none-eabi/include/c++/10.3.1/bits/stl_vector.h ****       vector() { }
 490:/Applications/ARM/arm-none-eabi/include/c++/10.3.1/bits/stl_vector.h **** #endif
 491:/Applications/ARM/arm-none-eabi/include/c++/10.3.1/bits/stl_vector.h **** 
 492:/Applications/ARM/arm-none-eabi/include/c++/10.3.1/bits/stl_vector.h ****       /**
 493:/Applications/ARM/arm-none-eabi/include/c++/10.3.1/bits/stl_vector.h ****        *  @brief  Creates a %vector with no elements.
 494:/Applications/ARM/arm-none-eabi/include/c++/10.3.1/bits/stl_vector.h ****        *  @param  __a  An allocator object.
 495:/Applications/ARM/arm-none-eabi/include/c++/10.3.1/bits/stl_vector.h ****        */
 496:/Applications/ARM/arm-none-eabi/include/c++/10.3.1/bits/stl_vector.h ****       explicit
 497:/Applications/ARM/arm-none-eabi/include/c++/10.3.1/bits/stl_vector.h ****       vector(const allocator_type& __a) _GLIBCXX_NOEXCEPT
 498:/Applications/ARM/arm-none-eabi/include/c++/10.3.1/bits/stl_vector.h ****       : _Base(__a) { }
 499:/Applications/ARM/arm-none-eabi/include/c++/10.3.1/bits/stl_vector.h **** 
 500:/Applications/ARM/arm-none-eabi/include/c++/10.3.1/bits/stl_vector.h **** #if __cplusplus >= 201103L
 501:/Applications/ARM/arm-none-eabi/include/c++/10.3.1/bits/stl_vector.h ****       /**
 502:/Applications/ARM/arm-none-eabi/include/c++/10.3.1/bits/stl_vector.h ****        *  @brief  Creates a %vector with default constructed elements.
ARM GAS  /var/folders/fp/915b6f8s6gl4dt9rfrq38g500000gn/T//cchHy16I.s 			page 50


 503:/Applications/ARM/arm-none-eabi/include/c++/10.3.1/bits/stl_vector.h ****        *  @param  __n  The number of elements to initially create.
 504:/Applications/ARM/arm-none-eabi/include/c++/10.3.1/bits/stl_vector.h ****        *  @param  __a  An allocator.
 505:/Applications/ARM/arm-none-eabi/include/c++/10.3.1/bits/stl_vector.h ****        *
 506:/Applications/ARM/arm-none-eabi/include/c++/10.3.1/bits/stl_vector.h ****        *  This constructor fills the %vector with @a __n default
 507:/Applications/ARM/arm-none-eabi/include/c++/10.3.1/bits/stl_vector.h ****        *  constructed elements.
 508:/Applications/ARM/arm-none-eabi/include/c++/10.3.1/bits/stl_vector.h ****        */
 509:/Applications/ARM/arm-none-eabi/include/c++/10.3.1/bits/stl_vector.h ****       explicit
 510:/Applications/ARM/arm-none-eabi/include/c++/10.3.1/bits/stl_vector.h ****       vector(size_type __n, const allocator_type& __a = allocator_type())
 511:/Applications/ARM/arm-none-eabi/include/c++/10.3.1/bits/stl_vector.h ****       : _Base(_S_check_init_len(__n, __a), __a)
 512:/Applications/ARM/arm-none-eabi/include/c++/10.3.1/bits/stl_vector.h ****       { _M_default_initialize(__n); }
 513:/Applications/ARM/arm-none-eabi/include/c++/10.3.1/bits/stl_vector.h **** 
 514:/Applications/ARM/arm-none-eabi/include/c++/10.3.1/bits/stl_vector.h ****       /**
 515:/Applications/ARM/arm-none-eabi/include/c++/10.3.1/bits/stl_vector.h ****        *  @brief  Creates a %vector with copies of an exemplar element.
 516:/Applications/ARM/arm-none-eabi/include/c++/10.3.1/bits/stl_vector.h ****        *  @param  __n  The number of elements to initially create.
 517:/Applications/ARM/arm-none-eabi/include/c++/10.3.1/bits/stl_vector.h ****        *  @param  __value  An element to copy.
 518:/Applications/ARM/arm-none-eabi/include/c++/10.3.1/bits/stl_vector.h ****        *  @param  __a  An allocator.
 519:/Applications/ARM/arm-none-eabi/include/c++/10.3.1/bits/stl_vector.h ****        *
 520:/Applications/ARM/arm-none-eabi/include/c++/10.3.1/bits/stl_vector.h ****        *  This constructor fills the %vector with @a __n copies of @a __value.
 521:/Applications/ARM/arm-none-eabi/include/c++/10.3.1/bits/stl_vector.h ****        */
 522:/Applications/ARM/arm-none-eabi/include/c++/10.3.1/bits/stl_vector.h ****       vector(size_type __n, const value_type& __value,
 523:/Applications/ARM/arm-none-eabi/include/c++/10.3.1/bits/stl_vector.h **** 	     const allocator_type& __a = allocator_type())
 524:/Applications/ARM/arm-none-eabi/include/c++/10.3.1/bits/stl_vector.h ****       : _Base(_S_check_init_len(__n, __a), __a)
 525:/Applications/ARM/arm-none-eabi/include/c++/10.3.1/bits/stl_vector.h ****       { _M_fill_initialize(__n, __value); }
 526:/Applications/ARM/arm-none-eabi/include/c++/10.3.1/bits/stl_vector.h **** #else
 527:/Applications/ARM/arm-none-eabi/include/c++/10.3.1/bits/stl_vector.h ****       /**
 528:/Applications/ARM/arm-none-eabi/include/c++/10.3.1/bits/stl_vector.h ****        *  @brief  Creates a %vector with copies of an exemplar element.
 529:/Applications/ARM/arm-none-eabi/include/c++/10.3.1/bits/stl_vector.h ****        *  @param  __n  The number of elements to initially create.
 530:/Applications/ARM/arm-none-eabi/include/c++/10.3.1/bits/stl_vector.h ****        *  @param  __value  An element to copy.
 531:/Applications/ARM/arm-none-eabi/include/c++/10.3.1/bits/stl_vector.h ****        *  @param  __a  An allocator.
 532:/Applications/ARM/arm-none-eabi/include/c++/10.3.1/bits/stl_vector.h ****        *
 533:/Applications/ARM/arm-none-eabi/include/c++/10.3.1/bits/stl_vector.h ****        *  This constructor fills the %vector with @a __n copies of @a __value.
 534:/Applications/ARM/arm-none-eabi/include/c++/10.3.1/bits/stl_vector.h ****        */
 535:/Applications/ARM/arm-none-eabi/include/c++/10.3.1/bits/stl_vector.h ****       explicit
 536:/Applications/ARM/arm-none-eabi/include/c++/10.3.1/bits/stl_vector.h ****       vector(size_type __n, const value_type& __value = value_type(),
 537:/Applications/ARM/arm-none-eabi/include/c++/10.3.1/bits/stl_vector.h **** 	     const allocator_type& __a = allocator_type())
 538:/Applications/ARM/arm-none-eabi/include/c++/10.3.1/bits/stl_vector.h ****       : _Base(_S_check_init_len(__n, __a), __a)
 539:/Applications/ARM/arm-none-eabi/include/c++/10.3.1/bits/stl_vector.h ****       { _M_fill_initialize(__n, __value); }
 540:/Applications/ARM/arm-none-eabi/include/c++/10.3.1/bits/stl_vector.h **** #endif
 541:/Applications/ARM/arm-none-eabi/include/c++/10.3.1/bits/stl_vector.h **** 
 542:/Applications/ARM/arm-none-eabi/include/c++/10.3.1/bits/stl_vector.h ****       /**
 543:/Applications/ARM/arm-none-eabi/include/c++/10.3.1/bits/stl_vector.h ****        *  @brief  %Vector copy constructor.
 544:/Applications/ARM/arm-none-eabi/include/c++/10.3.1/bits/stl_vector.h ****        *  @param  __x  A %vector of identical element and allocator types.
 545:/Applications/ARM/arm-none-eabi/include/c++/10.3.1/bits/stl_vector.h ****        *
 546:/Applications/ARM/arm-none-eabi/include/c++/10.3.1/bits/stl_vector.h ****        *  All the elements of @a __x are copied, but any unused capacity in
 547:/Applications/ARM/arm-none-eabi/include/c++/10.3.1/bits/stl_vector.h ****        *  @a __x  will not be copied
 548:/Applications/ARM/arm-none-eabi/include/c++/10.3.1/bits/stl_vector.h ****        *  (i.e. capacity() == size() in the new %vector).
 549:/Applications/ARM/arm-none-eabi/include/c++/10.3.1/bits/stl_vector.h ****        *
 550:/Applications/ARM/arm-none-eabi/include/c++/10.3.1/bits/stl_vector.h ****        *  The newly-created %vector uses a copy of the allocator object used
 551:/Applications/ARM/arm-none-eabi/include/c++/10.3.1/bits/stl_vector.h ****        *  by @a __x (unless the allocator traits dictate a different object).
 552:/Applications/ARM/arm-none-eabi/include/c++/10.3.1/bits/stl_vector.h ****        */
 553:/Applications/ARM/arm-none-eabi/include/c++/10.3.1/bits/stl_vector.h ****       vector(const vector& __x)
 554:/Applications/ARM/arm-none-eabi/include/c++/10.3.1/bits/stl_vector.h ****       : _Base(__x.size(),
 555:/Applications/ARM/arm-none-eabi/include/c++/10.3.1/bits/stl_vector.h **** 	_Alloc_traits::_S_select_on_copy(__x._M_get_Tp_allocator()))
 556:/Applications/ARM/arm-none-eabi/include/c++/10.3.1/bits/stl_vector.h ****       {
 557:/Applications/ARM/arm-none-eabi/include/c++/10.3.1/bits/stl_vector.h **** 	this->_M_impl._M_finish =
 558:/Applications/ARM/arm-none-eabi/include/c++/10.3.1/bits/stl_vector.h **** 	  std::__uninitialized_copy_a(__x.begin(), __x.end(),
 559:/Applications/ARM/arm-none-eabi/include/c++/10.3.1/bits/stl_vector.h **** 				      this->_M_impl._M_start,
ARM GAS  /var/folders/fp/915b6f8s6gl4dt9rfrq38g500000gn/T//cchHy16I.s 			page 51


 560:/Applications/ARM/arm-none-eabi/include/c++/10.3.1/bits/stl_vector.h **** 				      _M_get_Tp_allocator());
 561:/Applications/ARM/arm-none-eabi/include/c++/10.3.1/bits/stl_vector.h ****       }
 562:/Applications/ARM/arm-none-eabi/include/c++/10.3.1/bits/stl_vector.h **** 
 563:/Applications/ARM/arm-none-eabi/include/c++/10.3.1/bits/stl_vector.h **** #if __cplusplus >= 201103L
 564:/Applications/ARM/arm-none-eabi/include/c++/10.3.1/bits/stl_vector.h ****       /**
 565:/Applications/ARM/arm-none-eabi/include/c++/10.3.1/bits/stl_vector.h ****        *  @brief  %Vector move constructor.
 566:/Applications/ARM/arm-none-eabi/include/c++/10.3.1/bits/stl_vector.h ****        *
 567:/Applications/ARM/arm-none-eabi/include/c++/10.3.1/bits/stl_vector.h ****        *  The newly-created %vector contains the exact contents of the
 568:/Applications/ARM/arm-none-eabi/include/c++/10.3.1/bits/stl_vector.h ****        *  moved instance.
 569:/Applications/ARM/arm-none-eabi/include/c++/10.3.1/bits/stl_vector.h ****        *  The contents of the moved instance are a valid, but unspecified
 570:/Applications/ARM/arm-none-eabi/include/c++/10.3.1/bits/stl_vector.h ****        *  %vector.
 571:/Applications/ARM/arm-none-eabi/include/c++/10.3.1/bits/stl_vector.h ****        */
 572:/Applications/ARM/arm-none-eabi/include/c++/10.3.1/bits/stl_vector.h ****       vector(vector&&) noexcept = default;
 573:/Applications/ARM/arm-none-eabi/include/c++/10.3.1/bits/stl_vector.h **** 
 574:/Applications/ARM/arm-none-eabi/include/c++/10.3.1/bits/stl_vector.h ****       /// Copy constructor with alternative allocator
 575:/Applications/ARM/arm-none-eabi/include/c++/10.3.1/bits/stl_vector.h ****       vector(const vector& __x, const allocator_type& __a)
 576:/Applications/ARM/arm-none-eabi/include/c++/10.3.1/bits/stl_vector.h ****       : _Base(__x.size(), __a)
 577:/Applications/ARM/arm-none-eabi/include/c++/10.3.1/bits/stl_vector.h ****       {
 578:/Applications/ARM/arm-none-eabi/include/c++/10.3.1/bits/stl_vector.h **** 	this->_M_impl._M_finish =
 579:/Applications/ARM/arm-none-eabi/include/c++/10.3.1/bits/stl_vector.h **** 	  std::__uninitialized_copy_a(__x.begin(), __x.end(),
 580:/Applications/ARM/arm-none-eabi/include/c++/10.3.1/bits/stl_vector.h **** 				      this->_M_impl._M_start,
 581:/Applications/ARM/arm-none-eabi/include/c++/10.3.1/bits/stl_vector.h **** 				      _M_get_Tp_allocator());
 582:/Applications/ARM/arm-none-eabi/include/c++/10.3.1/bits/stl_vector.h ****       }
 583:/Applications/ARM/arm-none-eabi/include/c++/10.3.1/bits/stl_vector.h **** 
 584:/Applications/ARM/arm-none-eabi/include/c++/10.3.1/bits/stl_vector.h ****     private:
 585:/Applications/ARM/arm-none-eabi/include/c++/10.3.1/bits/stl_vector.h ****       vector(vector&& __rv, const allocator_type& __m, true_type) noexcept
 586:/Applications/ARM/arm-none-eabi/include/c++/10.3.1/bits/stl_vector.h ****       : _Base(__m, std::move(__rv))
 587:/Applications/ARM/arm-none-eabi/include/c++/10.3.1/bits/stl_vector.h ****       { }
 588:/Applications/ARM/arm-none-eabi/include/c++/10.3.1/bits/stl_vector.h **** 
 589:/Applications/ARM/arm-none-eabi/include/c++/10.3.1/bits/stl_vector.h ****       vector(vector&& __rv, const allocator_type& __m, false_type)
 590:/Applications/ARM/arm-none-eabi/include/c++/10.3.1/bits/stl_vector.h ****       : _Base(__m)
 591:/Applications/ARM/arm-none-eabi/include/c++/10.3.1/bits/stl_vector.h ****       {
 592:/Applications/ARM/arm-none-eabi/include/c++/10.3.1/bits/stl_vector.h **** 	if (__rv.get_allocator() == __m)
 593:/Applications/ARM/arm-none-eabi/include/c++/10.3.1/bits/stl_vector.h **** 	  this->_M_impl._M_swap_data(__rv._M_impl);
 594:/Applications/ARM/arm-none-eabi/include/c++/10.3.1/bits/stl_vector.h **** 	else if (!__rv.empty())
 595:/Applications/ARM/arm-none-eabi/include/c++/10.3.1/bits/stl_vector.h **** 	  {
 596:/Applications/ARM/arm-none-eabi/include/c++/10.3.1/bits/stl_vector.h **** 	    this->_M_create_storage(__rv.size());
 597:/Applications/ARM/arm-none-eabi/include/c++/10.3.1/bits/stl_vector.h **** 	    this->_M_impl._M_finish =
 598:/Applications/ARM/arm-none-eabi/include/c++/10.3.1/bits/stl_vector.h **** 	      std::__uninitialized_move_a(__rv.begin(), __rv.end(),
 599:/Applications/ARM/arm-none-eabi/include/c++/10.3.1/bits/stl_vector.h **** 					  this->_M_impl._M_start,
 600:/Applications/ARM/arm-none-eabi/include/c++/10.3.1/bits/stl_vector.h **** 					  _M_get_Tp_allocator());
 601:/Applications/ARM/arm-none-eabi/include/c++/10.3.1/bits/stl_vector.h **** 	    __rv.clear();
 602:/Applications/ARM/arm-none-eabi/include/c++/10.3.1/bits/stl_vector.h **** 	  }
 603:/Applications/ARM/arm-none-eabi/include/c++/10.3.1/bits/stl_vector.h ****       }
 604:/Applications/ARM/arm-none-eabi/include/c++/10.3.1/bits/stl_vector.h **** 
 605:/Applications/ARM/arm-none-eabi/include/c++/10.3.1/bits/stl_vector.h ****     public:
 606:/Applications/ARM/arm-none-eabi/include/c++/10.3.1/bits/stl_vector.h ****       /// Move constructor with alternative allocator
 607:/Applications/ARM/arm-none-eabi/include/c++/10.3.1/bits/stl_vector.h ****       vector(vector&& __rv, const allocator_type& __m)
 608:/Applications/ARM/arm-none-eabi/include/c++/10.3.1/bits/stl_vector.h ****       noexcept( noexcept(
 609:/Applications/ARM/arm-none-eabi/include/c++/10.3.1/bits/stl_vector.h **** 	vector(std::declval<vector&&>(), std::declval<const allocator_type&>(),
 610:/Applications/ARM/arm-none-eabi/include/c++/10.3.1/bits/stl_vector.h **** 	       std::declval<typename _Alloc_traits::is_always_equal>())) )
 611:/Applications/ARM/arm-none-eabi/include/c++/10.3.1/bits/stl_vector.h ****       : vector(std::move(__rv), __m, typename _Alloc_traits::is_always_equal{})
 612:/Applications/ARM/arm-none-eabi/include/c++/10.3.1/bits/stl_vector.h ****       { }
 613:/Applications/ARM/arm-none-eabi/include/c++/10.3.1/bits/stl_vector.h **** 
 614:/Applications/ARM/arm-none-eabi/include/c++/10.3.1/bits/stl_vector.h ****       /**
 615:/Applications/ARM/arm-none-eabi/include/c++/10.3.1/bits/stl_vector.h ****        *  @brief  Builds a %vector from an initializer list.
 616:/Applications/ARM/arm-none-eabi/include/c++/10.3.1/bits/stl_vector.h ****        *  @param  __l  An initializer_list.
ARM GAS  /var/folders/fp/915b6f8s6gl4dt9rfrq38g500000gn/T//cchHy16I.s 			page 52


 617:/Applications/ARM/arm-none-eabi/include/c++/10.3.1/bits/stl_vector.h ****        *  @param  __a  An allocator.
 618:/Applications/ARM/arm-none-eabi/include/c++/10.3.1/bits/stl_vector.h ****        *
 619:/Applications/ARM/arm-none-eabi/include/c++/10.3.1/bits/stl_vector.h ****        *  Create a %vector consisting of copies of the elements in the
 620:/Applications/ARM/arm-none-eabi/include/c++/10.3.1/bits/stl_vector.h ****        *  initializer_list @a __l.
 621:/Applications/ARM/arm-none-eabi/include/c++/10.3.1/bits/stl_vector.h ****        *
 622:/Applications/ARM/arm-none-eabi/include/c++/10.3.1/bits/stl_vector.h ****        *  This will call the element type's copy constructor N times
 623:/Applications/ARM/arm-none-eabi/include/c++/10.3.1/bits/stl_vector.h ****        *  (where N is @a __l.size()) and do no memory reallocation.
 624:/Applications/ARM/arm-none-eabi/include/c++/10.3.1/bits/stl_vector.h ****        */
 625:/Applications/ARM/arm-none-eabi/include/c++/10.3.1/bits/stl_vector.h ****       vector(initializer_list<value_type> __l,
 626:/Applications/ARM/arm-none-eabi/include/c++/10.3.1/bits/stl_vector.h **** 	     const allocator_type& __a = allocator_type())
 627:/Applications/ARM/arm-none-eabi/include/c++/10.3.1/bits/stl_vector.h ****       : _Base(__a)
 628:/Applications/ARM/arm-none-eabi/include/c++/10.3.1/bits/stl_vector.h ****       {
 629:/Applications/ARM/arm-none-eabi/include/c++/10.3.1/bits/stl_vector.h **** 	_M_range_initialize(__l.begin(), __l.end(),
 630:/Applications/ARM/arm-none-eabi/include/c++/10.3.1/bits/stl_vector.h **** 			    random_access_iterator_tag());
 631:/Applications/ARM/arm-none-eabi/include/c++/10.3.1/bits/stl_vector.h ****       }
 632:/Applications/ARM/arm-none-eabi/include/c++/10.3.1/bits/stl_vector.h **** #endif
 633:/Applications/ARM/arm-none-eabi/include/c++/10.3.1/bits/stl_vector.h **** 
 634:/Applications/ARM/arm-none-eabi/include/c++/10.3.1/bits/stl_vector.h ****       /**
 635:/Applications/ARM/arm-none-eabi/include/c++/10.3.1/bits/stl_vector.h ****        *  @brief  Builds a %vector from a range.
 636:/Applications/ARM/arm-none-eabi/include/c++/10.3.1/bits/stl_vector.h ****        *  @param  __first  An input iterator.
 637:/Applications/ARM/arm-none-eabi/include/c++/10.3.1/bits/stl_vector.h ****        *  @param  __last  An input iterator.
 638:/Applications/ARM/arm-none-eabi/include/c++/10.3.1/bits/stl_vector.h ****        *  @param  __a  An allocator.
 639:/Applications/ARM/arm-none-eabi/include/c++/10.3.1/bits/stl_vector.h ****        *
 640:/Applications/ARM/arm-none-eabi/include/c++/10.3.1/bits/stl_vector.h ****        *  Create a %vector consisting of copies of the elements from
 641:/Applications/ARM/arm-none-eabi/include/c++/10.3.1/bits/stl_vector.h ****        *  [first,last).
 642:/Applications/ARM/arm-none-eabi/include/c++/10.3.1/bits/stl_vector.h ****        *
 643:/Applications/ARM/arm-none-eabi/include/c++/10.3.1/bits/stl_vector.h ****        *  If the iterators are forward, bidirectional, or
 644:/Applications/ARM/arm-none-eabi/include/c++/10.3.1/bits/stl_vector.h ****        *  random-access, then this will call the elements' copy
 645:/Applications/ARM/arm-none-eabi/include/c++/10.3.1/bits/stl_vector.h ****        *  constructor N times (where N is distance(first,last)) and do
 646:/Applications/ARM/arm-none-eabi/include/c++/10.3.1/bits/stl_vector.h ****        *  no memory reallocation.  But if only input iterators are
 647:/Applications/ARM/arm-none-eabi/include/c++/10.3.1/bits/stl_vector.h ****        *  used, then this will do at most 2N calls to the copy
 648:/Applications/ARM/arm-none-eabi/include/c++/10.3.1/bits/stl_vector.h ****        *  constructor, and logN memory reallocations.
 649:/Applications/ARM/arm-none-eabi/include/c++/10.3.1/bits/stl_vector.h ****        */
 650:/Applications/ARM/arm-none-eabi/include/c++/10.3.1/bits/stl_vector.h **** #if __cplusplus >= 201103L
 651:/Applications/ARM/arm-none-eabi/include/c++/10.3.1/bits/stl_vector.h ****       template<typename _InputIterator,
 652:/Applications/ARM/arm-none-eabi/include/c++/10.3.1/bits/stl_vector.h **** 	       typename = std::_RequireInputIter<_InputIterator>>
 653:/Applications/ARM/arm-none-eabi/include/c++/10.3.1/bits/stl_vector.h **** 	vector(_InputIterator __first, _InputIterator __last,
 654:/Applications/ARM/arm-none-eabi/include/c++/10.3.1/bits/stl_vector.h **** 	       const allocator_type& __a = allocator_type())
 655:/Applications/ARM/arm-none-eabi/include/c++/10.3.1/bits/stl_vector.h **** 	: _Base(__a)
 656:/Applications/ARM/arm-none-eabi/include/c++/10.3.1/bits/stl_vector.h **** 	{
 657:/Applications/ARM/arm-none-eabi/include/c++/10.3.1/bits/stl_vector.h **** 	  _M_range_initialize(__first, __last,
 658:/Applications/ARM/arm-none-eabi/include/c++/10.3.1/bits/stl_vector.h **** 			      std::__iterator_category(__first));
 659:/Applications/ARM/arm-none-eabi/include/c++/10.3.1/bits/stl_vector.h **** 	}
 660:/Applications/ARM/arm-none-eabi/include/c++/10.3.1/bits/stl_vector.h **** #else
 661:/Applications/ARM/arm-none-eabi/include/c++/10.3.1/bits/stl_vector.h ****       template<typename _InputIterator>
 662:/Applications/ARM/arm-none-eabi/include/c++/10.3.1/bits/stl_vector.h **** 	vector(_InputIterator __first, _InputIterator __last,
 663:/Applications/ARM/arm-none-eabi/include/c++/10.3.1/bits/stl_vector.h **** 	       const allocator_type& __a = allocator_type())
 664:/Applications/ARM/arm-none-eabi/include/c++/10.3.1/bits/stl_vector.h **** 	: _Base(__a)
 665:/Applications/ARM/arm-none-eabi/include/c++/10.3.1/bits/stl_vector.h **** 	{
 666:/Applications/ARM/arm-none-eabi/include/c++/10.3.1/bits/stl_vector.h **** 	  // Check whether it's an integral type.  If so, it's not an iterator.
 667:/Applications/ARM/arm-none-eabi/include/c++/10.3.1/bits/stl_vector.h **** 	  typedef typename std::__is_integer<_InputIterator>::__type _Integral;
 668:/Applications/ARM/arm-none-eabi/include/c++/10.3.1/bits/stl_vector.h **** 	  _M_initialize_dispatch(__first, __last, _Integral());
 669:/Applications/ARM/arm-none-eabi/include/c++/10.3.1/bits/stl_vector.h **** 	}
 670:/Applications/ARM/arm-none-eabi/include/c++/10.3.1/bits/stl_vector.h **** #endif
 671:/Applications/ARM/arm-none-eabi/include/c++/10.3.1/bits/stl_vector.h **** 
 672:/Applications/ARM/arm-none-eabi/include/c++/10.3.1/bits/stl_vector.h ****       /**
 673:/Applications/ARM/arm-none-eabi/include/c++/10.3.1/bits/stl_vector.h ****        *  The dtor only erases the elements, and note that if the
ARM GAS  /var/folders/fp/915b6f8s6gl4dt9rfrq38g500000gn/T//cchHy16I.s 			page 53


 674:/Applications/ARM/arm-none-eabi/include/c++/10.3.1/bits/stl_vector.h ****        *  elements themselves are pointers, the pointed-to memory is
 675:/Applications/ARM/arm-none-eabi/include/c++/10.3.1/bits/stl_vector.h ****        *  not touched in any way.  Managing the pointer is the user's
 676:/Applications/ARM/arm-none-eabi/include/c++/10.3.1/bits/stl_vector.h ****        *  responsibility.
 677:/Applications/ARM/arm-none-eabi/include/c++/10.3.1/bits/stl_vector.h ****        */
 678:/Applications/ARM/arm-none-eabi/include/c++/10.3.1/bits/stl_vector.h ****       ~vector() _GLIBCXX_NOEXCEPT
 632              		.loc 15 678 7 is_stmt 1 view -0
 633              		.cfi_startproc
 634              		@ args = 0, pretend = 0, frame = 0
 635              		@ frame_needed = 0, uses_anonymous_args = 0
 636              		.loc 15 678 7 is_stmt 0 view .LVU110
 637 0000 10B5     		push	{r4, lr}
 638              		.cfi_def_cfa_offset 8
 639              		.cfi_offset 4, -8
 640              		.cfi_offset 14, -4
 641              		.loc 15 678 7 view .LVU111
 642 0002 0446     		mov	r4, r0
 643              	.LVL26:
 644              	.LBB3315:
 645              	.LBI3315:
 276:/Applications/ARM/arm-none-eabi/include/c++/10.3.1/bits/stl_vector.h ****       { return this->_M_impl; }
 646              		.loc 15 276 7 is_stmt 1 view .LVU112
 276:/Applications/ARM/arm-none-eabi/include/c++/10.3.1/bits/stl_vector.h ****       { return this->_M_impl; }
 647              		.loc 15 276 7 is_stmt 0 view .LVU113
 648              	.LBE3315:
 649              	.LBB3316:
 650              	.LBI3316:
 651              		.file 16 "/Applications/ARM/arm-none-eabi/include/c++/10.3.1/bits/alloc_traits.h"
   1:/Applications/ARM/arm-none-eabi/include/c++/10.3.1/bits/alloc_traits.h **** // Allocator traits -*- C++ -*-
   2:/Applications/ARM/arm-none-eabi/include/c++/10.3.1/bits/alloc_traits.h **** 
   3:/Applications/ARM/arm-none-eabi/include/c++/10.3.1/bits/alloc_traits.h **** // Copyright (C) 2011-2020 Free Software Foundation, Inc.
   4:/Applications/ARM/arm-none-eabi/include/c++/10.3.1/bits/alloc_traits.h **** //
   5:/Applications/ARM/arm-none-eabi/include/c++/10.3.1/bits/alloc_traits.h **** // This file is part of the GNU ISO C++ Library.  This library is free
   6:/Applications/ARM/arm-none-eabi/include/c++/10.3.1/bits/alloc_traits.h **** // software; you can redistribute it and/or modify it under the
   7:/Applications/ARM/arm-none-eabi/include/c++/10.3.1/bits/alloc_traits.h **** // terms of the GNU General Public License as published by the
   8:/Applications/ARM/arm-none-eabi/include/c++/10.3.1/bits/alloc_traits.h **** // Free Software Foundation; either version 3, or (at your option)
   9:/Applications/ARM/arm-none-eabi/include/c++/10.3.1/bits/alloc_traits.h **** // any later version.
  10:/Applications/ARM/arm-none-eabi/include/c++/10.3.1/bits/alloc_traits.h **** 
  11:/Applications/ARM/arm-none-eabi/include/c++/10.3.1/bits/alloc_traits.h **** // This library is distributed in the hope that it will be useful,
  12:/Applications/ARM/arm-none-eabi/include/c++/10.3.1/bits/alloc_traits.h **** // but WITHOUT ANY WARRANTY; without even the implied warranty of
  13:/Applications/ARM/arm-none-eabi/include/c++/10.3.1/bits/alloc_traits.h **** // MERCHANTABILITY or FITNESS FOR A PARTICULAR PURPOSE.  See the
  14:/Applications/ARM/arm-none-eabi/include/c++/10.3.1/bits/alloc_traits.h **** // GNU General Public License for more details.
  15:/Applications/ARM/arm-none-eabi/include/c++/10.3.1/bits/alloc_traits.h **** 
  16:/Applications/ARM/arm-none-eabi/include/c++/10.3.1/bits/alloc_traits.h **** // Under Section 7 of GPL version 3, you are granted additional
  17:/Applications/ARM/arm-none-eabi/include/c++/10.3.1/bits/alloc_traits.h **** // permissions described in the GCC Runtime Library Exception, version
  18:/Applications/ARM/arm-none-eabi/include/c++/10.3.1/bits/alloc_traits.h **** // 3.1, as published by the Free Software Foundation.
  19:/Applications/ARM/arm-none-eabi/include/c++/10.3.1/bits/alloc_traits.h **** 
  20:/Applications/ARM/arm-none-eabi/include/c++/10.3.1/bits/alloc_traits.h **** // You should have received a copy of the GNU General Public License and
  21:/Applications/ARM/arm-none-eabi/include/c++/10.3.1/bits/alloc_traits.h **** // a copy of the GCC Runtime Library Exception along with this program;
  22:/Applications/ARM/arm-none-eabi/include/c++/10.3.1/bits/alloc_traits.h **** // see the files COPYING3 and COPYING.RUNTIME respectively.  If not, see
  23:/Applications/ARM/arm-none-eabi/include/c++/10.3.1/bits/alloc_traits.h **** // <http://www.gnu.org/licenses/>.
  24:/Applications/ARM/arm-none-eabi/include/c++/10.3.1/bits/alloc_traits.h **** 
  25:/Applications/ARM/arm-none-eabi/include/c++/10.3.1/bits/alloc_traits.h **** /** @file bits/alloc_traits.h
  26:/Applications/ARM/arm-none-eabi/include/c++/10.3.1/bits/alloc_traits.h ****  *  This is an internal header file, included by other library headers.
  27:/Applications/ARM/arm-none-eabi/include/c++/10.3.1/bits/alloc_traits.h ****  *  Do not attempt to use it directly. @headername{memory}
  28:/Applications/ARM/arm-none-eabi/include/c++/10.3.1/bits/alloc_traits.h ****  */
  29:/Applications/ARM/arm-none-eabi/include/c++/10.3.1/bits/alloc_traits.h **** 
  30:/Applications/ARM/arm-none-eabi/include/c++/10.3.1/bits/alloc_traits.h **** #ifndef _ALLOC_TRAITS_H
ARM GAS  /var/folders/fp/915b6f8s6gl4dt9rfrq38g500000gn/T//cchHy16I.s 			page 54


  31:/Applications/ARM/arm-none-eabi/include/c++/10.3.1/bits/alloc_traits.h **** #define _ALLOC_TRAITS_H 1
  32:/Applications/ARM/arm-none-eabi/include/c++/10.3.1/bits/alloc_traits.h **** 
  33:/Applications/ARM/arm-none-eabi/include/c++/10.3.1/bits/alloc_traits.h **** #include <bits/stl_construct.h>
  34:/Applications/ARM/arm-none-eabi/include/c++/10.3.1/bits/alloc_traits.h **** #include <bits/memoryfwd.h>
  35:/Applications/ARM/arm-none-eabi/include/c++/10.3.1/bits/alloc_traits.h **** #if __cplusplus >= 201103L
  36:/Applications/ARM/arm-none-eabi/include/c++/10.3.1/bits/alloc_traits.h **** # include <bits/allocator.h>
  37:/Applications/ARM/arm-none-eabi/include/c++/10.3.1/bits/alloc_traits.h **** # include <bits/ptr_traits.h>
  38:/Applications/ARM/arm-none-eabi/include/c++/10.3.1/bits/alloc_traits.h **** # include <ext/numeric_traits.h>
  39:/Applications/ARM/arm-none-eabi/include/c++/10.3.1/bits/alloc_traits.h **** #endif
  40:/Applications/ARM/arm-none-eabi/include/c++/10.3.1/bits/alloc_traits.h **** 
  41:/Applications/ARM/arm-none-eabi/include/c++/10.3.1/bits/alloc_traits.h **** namespace std _GLIBCXX_VISIBILITY(default)
  42:/Applications/ARM/arm-none-eabi/include/c++/10.3.1/bits/alloc_traits.h **** {
  43:/Applications/ARM/arm-none-eabi/include/c++/10.3.1/bits/alloc_traits.h **** _GLIBCXX_BEGIN_NAMESPACE_VERSION
  44:/Applications/ARM/arm-none-eabi/include/c++/10.3.1/bits/alloc_traits.h **** 
  45:/Applications/ARM/arm-none-eabi/include/c++/10.3.1/bits/alloc_traits.h **** #if __cplusplus >= 201103L
  46:/Applications/ARM/arm-none-eabi/include/c++/10.3.1/bits/alloc_traits.h **** #define __cpp_lib_allocator_traits_is_always_equal 201411
  47:/Applications/ARM/arm-none-eabi/include/c++/10.3.1/bits/alloc_traits.h **** 
  48:/Applications/ARM/arm-none-eabi/include/c++/10.3.1/bits/alloc_traits.h ****   struct __allocator_traits_base
  49:/Applications/ARM/arm-none-eabi/include/c++/10.3.1/bits/alloc_traits.h ****   {
  50:/Applications/ARM/arm-none-eabi/include/c++/10.3.1/bits/alloc_traits.h ****     template<typename _Tp, typename _Up, typename = void>
  51:/Applications/ARM/arm-none-eabi/include/c++/10.3.1/bits/alloc_traits.h ****       struct __rebind : __replace_first_arg<_Tp, _Up> { };
  52:/Applications/ARM/arm-none-eabi/include/c++/10.3.1/bits/alloc_traits.h **** 
  53:/Applications/ARM/arm-none-eabi/include/c++/10.3.1/bits/alloc_traits.h ****     template<typename _Tp, typename _Up>
  54:/Applications/ARM/arm-none-eabi/include/c++/10.3.1/bits/alloc_traits.h ****       struct __rebind<_Tp, _Up,
  55:/Applications/ARM/arm-none-eabi/include/c++/10.3.1/bits/alloc_traits.h **** 		      __void_t<typename _Tp::template rebind<_Up>::other>>
  56:/Applications/ARM/arm-none-eabi/include/c++/10.3.1/bits/alloc_traits.h ****       { using type = typename _Tp::template rebind<_Up>::other; };
  57:/Applications/ARM/arm-none-eabi/include/c++/10.3.1/bits/alloc_traits.h **** 
  58:/Applications/ARM/arm-none-eabi/include/c++/10.3.1/bits/alloc_traits.h ****   protected:
  59:/Applications/ARM/arm-none-eabi/include/c++/10.3.1/bits/alloc_traits.h ****     template<typename _Tp>
  60:/Applications/ARM/arm-none-eabi/include/c++/10.3.1/bits/alloc_traits.h ****       using __pointer = typename _Tp::pointer;
  61:/Applications/ARM/arm-none-eabi/include/c++/10.3.1/bits/alloc_traits.h ****     template<typename _Tp>
  62:/Applications/ARM/arm-none-eabi/include/c++/10.3.1/bits/alloc_traits.h ****       using __c_pointer = typename _Tp::const_pointer;
  63:/Applications/ARM/arm-none-eabi/include/c++/10.3.1/bits/alloc_traits.h ****     template<typename _Tp>
  64:/Applications/ARM/arm-none-eabi/include/c++/10.3.1/bits/alloc_traits.h ****       using __v_pointer = typename _Tp::void_pointer;
  65:/Applications/ARM/arm-none-eabi/include/c++/10.3.1/bits/alloc_traits.h ****     template<typename _Tp>
  66:/Applications/ARM/arm-none-eabi/include/c++/10.3.1/bits/alloc_traits.h ****       using __cv_pointer = typename _Tp::const_void_pointer;
  67:/Applications/ARM/arm-none-eabi/include/c++/10.3.1/bits/alloc_traits.h ****     template<typename _Tp>
  68:/Applications/ARM/arm-none-eabi/include/c++/10.3.1/bits/alloc_traits.h ****       using __pocca = typename _Tp::propagate_on_container_copy_assignment;
  69:/Applications/ARM/arm-none-eabi/include/c++/10.3.1/bits/alloc_traits.h ****     template<typename _Tp>
  70:/Applications/ARM/arm-none-eabi/include/c++/10.3.1/bits/alloc_traits.h ****       using __pocma = typename _Tp::propagate_on_container_move_assignment;
  71:/Applications/ARM/arm-none-eabi/include/c++/10.3.1/bits/alloc_traits.h ****     template<typename _Tp>
  72:/Applications/ARM/arm-none-eabi/include/c++/10.3.1/bits/alloc_traits.h ****       using __pocs = typename _Tp::propagate_on_container_swap;
  73:/Applications/ARM/arm-none-eabi/include/c++/10.3.1/bits/alloc_traits.h ****     template<typename _Tp>
  74:/Applications/ARM/arm-none-eabi/include/c++/10.3.1/bits/alloc_traits.h ****       using __equal = typename _Tp::is_always_equal;
  75:/Applications/ARM/arm-none-eabi/include/c++/10.3.1/bits/alloc_traits.h ****   };
  76:/Applications/ARM/arm-none-eabi/include/c++/10.3.1/bits/alloc_traits.h **** 
  77:/Applications/ARM/arm-none-eabi/include/c++/10.3.1/bits/alloc_traits.h ****   template<typename _Alloc, typename _Up>
  78:/Applications/ARM/arm-none-eabi/include/c++/10.3.1/bits/alloc_traits.h ****     using __alloc_rebind
  79:/Applications/ARM/arm-none-eabi/include/c++/10.3.1/bits/alloc_traits.h ****       = typename __allocator_traits_base::template __rebind<_Alloc, _Up>::type;
  80:/Applications/ARM/arm-none-eabi/include/c++/10.3.1/bits/alloc_traits.h **** 
  81:/Applications/ARM/arm-none-eabi/include/c++/10.3.1/bits/alloc_traits.h ****   /**
  82:/Applications/ARM/arm-none-eabi/include/c++/10.3.1/bits/alloc_traits.h ****    * @brief  Uniform interface to all allocator types.
  83:/Applications/ARM/arm-none-eabi/include/c++/10.3.1/bits/alloc_traits.h ****    * @ingroup allocators
  84:/Applications/ARM/arm-none-eabi/include/c++/10.3.1/bits/alloc_traits.h ****   */
  85:/Applications/ARM/arm-none-eabi/include/c++/10.3.1/bits/alloc_traits.h ****   template<typename _Alloc>
  86:/Applications/ARM/arm-none-eabi/include/c++/10.3.1/bits/alloc_traits.h ****     struct allocator_traits : __allocator_traits_base
  87:/Applications/ARM/arm-none-eabi/include/c++/10.3.1/bits/alloc_traits.h ****     {
ARM GAS  /var/folders/fp/915b6f8s6gl4dt9rfrq38g500000gn/T//cchHy16I.s 			page 55


  88:/Applications/ARM/arm-none-eabi/include/c++/10.3.1/bits/alloc_traits.h ****       /// The allocator type
  89:/Applications/ARM/arm-none-eabi/include/c++/10.3.1/bits/alloc_traits.h ****       typedef _Alloc allocator_type;
  90:/Applications/ARM/arm-none-eabi/include/c++/10.3.1/bits/alloc_traits.h ****       /// The allocated type
  91:/Applications/ARM/arm-none-eabi/include/c++/10.3.1/bits/alloc_traits.h ****       typedef typename _Alloc::value_type value_type;
  92:/Applications/ARM/arm-none-eabi/include/c++/10.3.1/bits/alloc_traits.h **** 
  93:/Applications/ARM/arm-none-eabi/include/c++/10.3.1/bits/alloc_traits.h ****       /**
  94:/Applications/ARM/arm-none-eabi/include/c++/10.3.1/bits/alloc_traits.h ****        * @brief   The allocator's pointer type.
  95:/Applications/ARM/arm-none-eabi/include/c++/10.3.1/bits/alloc_traits.h ****        *
